GAS LISTING /tmp/ccCiKDGk.s 			page 1


   1              		.file	"buffer.cpp"
   2              		.option pic
   3              		.option norelax
   4              		.text
   5              	.Ltext0:
   6              		.section	.rodata.str1.8,"aMS",@progbits,1
   7              		.align	3
   8              	.LC0:
   9 0000 0A00     		.string	"\n"
  10              		.text
  11              		.align	2
  12              		.globl	_ZN6BufferC2Ei
  14              	_ZN6BufferC2Ei:
  15              	.LFB50:
  16              		.file 1 "javniTestovi/buffer.cpp"
   1:javniTestovi/buffer.cpp **** #include "buffer.hpp"
   2:javniTestovi/buffer.cpp **** 
   3:javniTestovi/buffer.cpp **** Buffer::Buffer(int _cap) : cap(_cap + 1), head(0), tail(0) {
  17              		.loc 1 3 1
  18              		.cfi_startproc
  19              	.LVL0:
  20 0000 130101FE 		addi	sp,sp,-32
  21              		.cfi_def_cfa_offset 32
  22 0004 233C1100 		sd	ra,24(sp)
  23 0008 23388100 		sd	s0,16(sp)
  24 000c 23349100 		sd	s1,8(sp)
  25 0010 23302101 		sd	s2,0(sp)
  26              		.cfi_offset 1, -8
  27              		.cfi_offset 8, -16
  28              		.cfi_offset 9, -24
  29              		.cfi_offset 18, -32
  30 0014 13040102 		addi	s0,sp,32
  31              		.cfi_def_cfa 8, 0
  32 0018 93040500 		mv	s1,a0
  33 001c 13890500 		mv	s2,a1
  34              	.LBB2:
  35              		.loc 1 3 37 is_stmt 0
  36 0020 9B871500 		addiw	a5,a1,1
  37 0024 1B850700 		sext.w	a0,a5
  38              	.LVL1:
  39              		.loc 1 3 58
  40 0028 23A0F400 		sw	a5,0(s1)
  41 002c 23A80400 		sw	zero,16(s1)
  42 0030 23AA0400 		sw	zero,20(s1)
   4:javniTestovi/buffer.cpp ****     buffer = (int *)mem_alloc(sizeof(int) * cap);
  43              		.loc 1 4 5 is_stmt 1
  44              		.loc 1 4 30 is_stmt 0
  45 0034 13152500 		slli	a0,a0,2
  46 0038 97000000 		call	_Z9mem_allocm@plt
  46      E7800000 
  47              	.LVL2:
  48              		.loc 1 4 12
  49 0040 23B4A400 		sd	a0,8(s1)
   5:javniTestovi/buffer.cpp ****     sem_open(&itemAvailable, 0);
  50              		.loc 1 5 5 is_stmt 1
  51              		.loc 1 5 13 is_stmt 0
  52 0044 93050000 		li	a1,0
GAS LISTING /tmp/ccCiKDGk.s 			page 2


  53 0048 13850402 		addi	a0,s1,32
  54 004c 97000000 		call	_Z8sem_openPP15kernelSemaphorej@plt
  54      E7800000 
  55              	.LVL3:
   6:javniTestovi/buffer.cpp ****     sem_open(&spaceAvailable, _cap);
  56              		.loc 1 6 5 is_stmt 1
  57              		.loc 1 6 13 is_stmt 0
  58 0054 93050900 		mv	a1,s2
  59 0058 13858401 		addi	a0,s1,24
  60 005c 97000000 		call	_Z8sem_openPP15kernelSemaphorej@plt
  60      E7800000 
  61              	.LVL4:
   7:javniTestovi/buffer.cpp ****     sem_open(&mutexHead, 1);
  62              		.loc 1 7 5 is_stmt 1
  63              		.loc 1 7 13 is_stmt 0
  64 0064 93051000 		li	a1,1
  65 0068 13858402 		addi	a0,s1,40
  66 006c 97000000 		call	_Z8sem_openPP15kernelSemaphorej@plt
  66      E7800000 
  67              	.LVL5:
   8:javniTestovi/buffer.cpp ****     sem_open(&mutexTail, 1);
  68              		.loc 1 8 5 is_stmt 1
  69              		.loc 1 8 13 is_stmt 0
  70 0074 93051000 		li	a1,1
  71 0078 13850403 		addi	a0,s1,48
  72 007c 97000000 		call	_Z8sem_openPP15kernelSemaphorej@plt
  72      E7800000 
  73              	.LVL6:
   9:javniTestovi/buffer.cpp ****     printInt((uint64)itemAvailable);
  74              		.loc 1 9 5 is_stmt 1
  75              		.loc 1 9 13 is_stmt 0
  76 0084 13060000 		li	a2,0
  77 0088 9305A000 		li	a1,10
  78 008c 03A50402 		lw	a0,32(s1)
  79 0090 97000000 		call	_Z8printIntiii@plt
  79      E7800000 
  80              	.LVL7:
  10:javniTestovi/buffer.cpp ****     printString("\n");
  81              		.loc 1 10 5 is_stmt 1
  82              		.loc 1 10 16 is_stmt 0
  83 0098 17050000 		lla	a0,.LC0
  83      13050500 
  84 00a0 97000000 		call	_Z11printStringPKc@plt
  84      E7800000 
  85              	.LVL8:
  11:javniTestovi/buffer.cpp ****     printInt((uint64)spaceAvailable);
  86              		.loc 1 11 5 is_stmt 1
  87              		.loc 1 11 13 is_stmt 0
  88 00a8 13060000 		li	a2,0
  89 00ac 9305A000 		li	a1,10
  90 00b0 03A58401 		lw	a0,24(s1)
  91 00b4 97000000 		call	_Z8printIntiii@plt
  91      E7800000 
  92              	.LVL9:
  12:javniTestovi/buffer.cpp ****     printString("\n");
  93              		.loc 1 12 5 is_stmt 1
  94              		.loc 1 12 16 is_stmt 0
GAS LISTING /tmp/ccCiKDGk.s 			page 3


  95 00bc 17050000 		lla	a0,.LC0
  95      13050500 
  96 00c4 97000000 		call	_Z11printStringPKc@plt
  96      E7800000 
  97              	.LVL10:
  13:javniTestovi/buffer.cpp ****     printInt((uint64)mutexHead);
  98              		.loc 1 13 5 is_stmt 1
  99              		.loc 1 13 13 is_stmt 0
 100 00cc 13060000 		li	a2,0
 101 00d0 9305A000 		li	a1,10
 102 00d4 03A58402 		lw	a0,40(s1)
 103 00d8 97000000 		call	_Z8printIntiii@plt
 103      E7800000 
 104              	.LVL11:
  14:javniTestovi/buffer.cpp ****     printString("\n");
 105              		.loc 1 14 5 is_stmt 1
 106              		.loc 1 14 16 is_stmt 0
 107 00e0 17050000 		lla	a0,.LC0
 107      13050500 
 108 00e8 97000000 		call	_Z11printStringPKc@plt
 108      E7800000 
 109              	.LVL12:
  15:javniTestovi/buffer.cpp ****     printInt((uint64)mutexTail);
 110              		.loc 1 15 5 is_stmt 1
 111              		.loc 1 15 13 is_stmt 0
 112 00f0 13060000 		li	a2,0
 113 00f4 9305A000 		li	a1,10
 114 00f8 03A50403 		lw	a0,48(s1)
 115 00fc 97000000 		call	_Z8printIntiii@plt
 115      E7800000 
 116              	.LVL13:
  16:javniTestovi/buffer.cpp ****     printString("\n");
 117              		.loc 1 16 5 is_stmt 1
 118              		.loc 1 16 16 is_stmt 0
 119 0104 17050000 		lla	a0,.LC0
 119      13050500 
 120 010c 97000000 		call	_Z11printStringPKc@plt
 120      E7800000 
 121              	.LVL14:
 122              	.LBE2:
  17:javniTestovi/buffer.cpp **** 
  18:javniTestovi/buffer.cpp **** }
 123              		.loc 1 18 1
 124 0114 83308101 		ld	ra,24(sp)
 125              		.cfi_restore 1
 126 0118 03340101 		ld	s0,16(sp)
 127              		.cfi_restore 8
 128              		.cfi_def_cfa 2, 32
 129 011c 83348100 		ld	s1,8(sp)
 130              		.cfi_restore 9
 131              	.LVL15:
 132 0120 03390100 		ld	s2,0(sp)
 133              		.cfi_restore 18
 134 0124 13010102 		addi	sp,sp,32
 135              		.cfi_def_cfa_offset 0
 136 0128 67800000 		jr	ra
 137              		.cfi_endproc
GAS LISTING /tmp/ccCiKDGk.s 			page 4


 138              	.LFE50:
 140              		.globl	_ZN6BufferC1Ei
 141              		.set	_ZN6BufferC1Ei,_ZN6BufferC2Ei
 142              		.align	2
 143              		.globl	_ZN6Buffer3putEi
 145              	_ZN6Buffer3putEi:
 146              	.LFB55:
  19:javniTestovi/buffer.cpp **** 
  20:javniTestovi/buffer.cpp **** Buffer::~Buffer() {
  21:javniTestovi/buffer.cpp ****     putc('\n');
  22:javniTestovi/buffer.cpp ****     printString("Buffer deleted!\n");
  23:javniTestovi/buffer.cpp ****     while (getCnt() > 0) {
  24:javniTestovi/buffer.cpp ****         char ch = buffer[head];
  25:javniTestovi/buffer.cpp ****         putc(ch);
  26:javniTestovi/buffer.cpp ****         head = (head + 1) % cap;
  27:javniTestovi/buffer.cpp ****     }
  28:javniTestovi/buffer.cpp ****     putc('!');
  29:javniTestovi/buffer.cpp ****     putc('\n');
  30:javniTestovi/buffer.cpp **** 
  31:javniTestovi/buffer.cpp ****     mem_free(buffer);
  32:javniTestovi/buffer.cpp ****     sem_close(itemAvailable);
  33:javniTestovi/buffer.cpp ****     sem_close(spaceAvailable);
  34:javniTestovi/buffer.cpp ****     sem_close(mutexTail);
  35:javniTestovi/buffer.cpp ****     sem_close(mutexHead);
  36:javniTestovi/buffer.cpp **** }
  37:javniTestovi/buffer.cpp **** 
  38:javniTestovi/buffer.cpp **** void Buffer::put(int val) {
 147              		.loc 1 38 27 is_stmt 1
 148              		.cfi_startproc
 149              	.LVL16:
 150 012c 130101FE 		addi	sp,sp,-32
 151              		.cfi_def_cfa_offset 32
 152 0130 233C1100 		sd	ra,24(sp)
 153 0134 23388100 		sd	s0,16(sp)
 154 0138 23349100 		sd	s1,8(sp)
 155 013c 23302101 		sd	s2,0(sp)
 156              		.cfi_offset 1, -8
 157              		.cfi_offset 8, -16
 158              		.cfi_offset 9, -24
 159              		.cfi_offset 18, -32
 160 0140 13040102 		addi	s0,sp,32
 161              		.cfi_def_cfa 8, 0
 162 0144 93040500 		mv	s1,a0
 163 0148 13890500 		mv	s2,a1
  39:javniTestovi/buffer.cpp ****     sem_wait(spaceAvailable);
 164              		.loc 1 39 5
 165              		.loc 1 39 13 is_stmt 0
 166 014c 03358501 		ld	a0,24(a0)
 167              	.LVL17:
 168 0150 97000000 		call	_Z8sem_waitP15kernelSemaphore@plt
 168      E7800000 
 169              	.LVL18:
  40:javniTestovi/buffer.cpp **** 
  41:javniTestovi/buffer.cpp ****     sem_wait(mutexTail);
 170              		.loc 1 41 5 is_stmt 1
 171              		.loc 1 41 13 is_stmt 0
 172 0158 03B50403 		ld	a0,48(s1)
GAS LISTING /tmp/ccCiKDGk.s 			page 5


 173 015c 97000000 		call	_Z8sem_waitP15kernelSemaphore@plt
 173      E7800000 
 174              	.LVL19:
  42:javniTestovi/buffer.cpp ****     buffer[tail] = val;
 175              		.loc 1 42 5 is_stmt 1
 176 0164 83B78400 		ld	a5,8(s1)
 177              		.loc 1 42 12 is_stmt 0
 178 0168 03A74401 		lw	a4,20(s1)
 179              		.loc 1 42 16
 180 016c 13172700 		slli	a4,a4,2
 181 0170 B387E700 		add	a5,a5,a4
 182              		.loc 1 42 18
 183 0174 23A02701 		sw	s2,0(a5)
  43:javniTestovi/buffer.cpp ****     tail = (tail + 1) % cap;
 184              		.loc 1 43 5 is_stmt 1
 185              		.loc 1 43 13 is_stmt 0
 186 0178 83A74401 		lw	a5,20(s1)
 187              		.loc 1 43 18
 188 017c 9B871700 		addiw	a5,a5,1
 189              		.loc 1 43 25
 190 0180 03A70400 		lw	a4,0(s1)
 191              		.loc 1 43 23
 192 0184 BBE7E702 		remw	a5,a5,a4
 193              		.loc 1 43 10
 194 0188 23AAF400 		sw	a5,20(s1)
  44:javniTestovi/buffer.cpp ****     sem_signal(mutexTail);
 195              		.loc 1 44 5 is_stmt 1
 196              		.loc 1 44 15 is_stmt 0
 197 018c 03B50403 		ld	a0,48(s1)
 198 0190 97000000 		call	_Z10sem_signalP15kernelSemaphore@plt
 198      E7800000 
 199              	.LVL20:
  45:javniTestovi/buffer.cpp **** 
  46:javniTestovi/buffer.cpp ****     sem_signal(itemAvailable);
 200              		.loc 1 46 5 is_stmt 1
 201              		.loc 1 46 15 is_stmt 0
 202 0198 03B50402 		ld	a0,32(s1)
 203 019c 97000000 		call	_Z10sem_signalP15kernelSemaphore@plt
 203      E7800000 
 204              	.LVL21:
  47:javniTestovi/buffer.cpp **** 
  48:javniTestovi/buffer.cpp **** }
 205              		.loc 1 48 1
 206 01a4 83308101 		ld	ra,24(sp)
 207              		.cfi_restore 1
 208 01a8 03340101 		ld	s0,16(sp)
 209              		.cfi_restore 8
 210              		.cfi_def_cfa 2, 32
 211 01ac 83348100 		ld	s1,8(sp)
 212              		.cfi_restore 9
 213              	.LVL22:
 214 01b0 03390100 		ld	s2,0(sp)
 215              		.cfi_restore 18
 216 01b4 13010102 		addi	sp,sp,32
 217              		.cfi_def_cfa_offset 0
 218 01b8 67800000 		jr	ra
 219              		.cfi_endproc
GAS LISTING /tmp/ccCiKDGk.s 			page 6


 220              	.LFE55:
 222              		.align	2
 223              		.globl	_ZN6Buffer3getEv
 225              	_ZN6Buffer3getEv:
 226              	.LFB56:
  49:javniTestovi/buffer.cpp **** 
  50:javniTestovi/buffer.cpp **** int Buffer::get() {
 227              		.loc 1 50 19 is_stmt 1
 228              		.cfi_startproc
 229              	.LVL23:
 230 01bc 130101FE 		addi	sp,sp,-32
 231              		.cfi_def_cfa_offset 32
 232 01c0 233C1100 		sd	ra,24(sp)
 233 01c4 23388100 		sd	s0,16(sp)
 234 01c8 23349100 		sd	s1,8(sp)
 235 01cc 23302101 		sd	s2,0(sp)
 236              		.cfi_offset 1, -8
 237              		.cfi_offset 8, -16
 238              		.cfi_offset 9, -24
 239              		.cfi_offset 18, -32
 240 01d0 13040102 		addi	s0,sp,32
 241              		.cfi_def_cfa 8, 0
 242 01d4 93040500 		mv	s1,a0
  51:javniTestovi/buffer.cpp ****     sem_wait(itemAvailable);
 243              		.loc 1 51 5
 244              		.loc 1 51 13 is_stmt 0
 245 01d8 03350502 		ld	a0,32(a0)
 246              	.LVL24:
 247 01dc 97000000 		call	_Z8sem_waitP15kernelSemaphore@plt
 247      E7800000 
 248              	.LVL25:
  52:javniTestovi/buffer.cpp **** 
  53:javniTestovi/buffer.cpp ****     sem_wait(mutexHead);
 249              		.loc 1 53 5 is_stmt 1
 250              		.loc 1 53 13 is_stmt 0
 251 01e4 03B58402 		ld	a0,40(s1)
 252 01e8 97000000 		call	_Z8sem_waitP15kernelSemaphore@plt
 252      E7800000 
 253              	.LVL26:
  54:javniTestovi/buffer.cpp **** 
  55:javniTestovi/buffer.cpp ****     int ret = buffer[head];
 254              		.loc 1 55 5 is_stmt 1
 255              		.loc 1 55 15 is_stmt 0
 256 01f0 03B78400 		ld	a4,8(s1)
 257              		.loc 1 55 22
 258 01f4 83A70401 		lw	a5,16(s1)
 259              		.loc 1 55 26
 260 01f8 93962700 		slli	a3,a5,2
 261 01fc 3307D700 		add	a4,a4,a3
 262              		.loc 1 55 9
 263 0200 03290700 		lw	s2,0(a4)
 264              	.LVL27:
  56:javniTestovi/buffer.cpp ****     head = (head + 1) % cap;
 265              		.loc 1 56 5 is_stmt 1
 266              		.loc 1 56 18 is_stmt 0
 267 0204 9B871700 		addiw	a5,a5,1
 268              		.loc 1 56 25
GAS LISTING /tmp/ccCiKDGk.s 			page 7


 269 0208 03A70400 		lw	a4,0(s1)
 270              		.loc 1 56 23
 271 020c BBE7E702 		remw	a5,a5,a4
 272              		.loc 1 56 10
 273 0210 23A8F400 		sw	a5,16(s1)
  57:javniTestovi/buffer.cpp ****     sem_signal(mutexHead);
 274              		.loc 1 57 5 is_stmt 1
 275              		.loc 1 57 15 is_stmt 0
 276 0214 03B58402 		ld	a0,40(s1)
 277 0218 97000000 		call	_Z10sem_signalP15kernelSemaphore@plt
 277      E7800000 
 278              	.LVL28:
  58:javniTestovi/buffer.cpp **** 
  59:javniTestovi/buffer.cpp ****     sem_signal(spaceAvailable);
 279              		.loc 1 59 5 is_stmt 1
 280              		.loc 1 59 15 is_stmt 0
 281 0220 03B58401 		ld	a0,24(s1)
 282 0224 97000000 		call	_Z10sem_signalP15kernelSemaphore@plt
 282      E7800000 
 283              	.LVL29:
  60:javniTestovi/buffer.cpp **** 
  61:javniTestovi/buffer.cpp ****     return ret;
 284              		.loc 1 61 5 is_stmt 1
  62:javniTestovi/buffer.cpp **** }
 285              		.loc 1 62 1 is_stmt 0
 286 022c 13050900 		mv	a0,s2
 287 0230 83308101 		ld	ra,24(sp)
 288              		.cfi_restore 1
 289 0234 03340101 		ld	s0,16(sp)
 290              		.cfi_restore 8
 291              		.cfi_def_cfa 2, 32
 292 0238 83348100 		ld	s1,8(sp)
 293              		.cfi_restore 9
 294              	.LVL30:
 295 023c 03390100 		ld	s2,0(sp)
 296              		.cfi_restore 18
 297              	.LVL31:
 298 0240 13010102 		addi	sp,sp,32
 299              		.cfi_def_cfa_offset 0
 300 0244 67800000 		jr	ra
 301              		.cfi_endproc
 302              	.LFE56:
 304              		.align	2
 305              		.globl	_ZN6Buffer6getCntEv
 307              	_ZN6Buffer6getCntEv:
 308              	.LFB57:
  63:javniTestovi/buffer.cpp **** 
  64:javniTestovi/buffer.cpp **** int Buffer::getCnt() {
 309              		.loc 1 64 22 is_stmt 1
 310              		.cfi_startproc
 311              	.LVL32:
 312 0248 130101FE 		addi	sp,sp,-32
 313              		.cfi_def_cfa_offset 32
 314 024c 233C1100 		sd	ra,24(sp)
 315 0250 23388100 		sd	s0,16(sp)
 316 0254 23349100 		sd	s1,8(sp)
 317 0258 23302101 		sd	s2,0(sp)
GAS LISTING /tmp/ccCiKDGk.s 			page 8


 318              		.cfi_offset 1, -8
 319              		.cfi_offset 8, -16
 320              		.cfi_offset 9, -24
 321              		.cfi_offset 18, -32
 322 025c 13040102 		addi	s0,sp,32
 323              		.cfi_def_cfa 8, 0
 324 0260 93040500 		mv	s1,a0
  65:javniTestovi/buffer.cpp ****     int ret;
 325              		.loc 1 65 5
  66:javniTestovi/buffer.cpp **** 
  67:javniTestovi/buffer.cpp ****     sem_wait(mutexHead);
 326              		.loc 1 67 5
 327              		.loc 1 67 13 is_stmt 0
 328 0264 03358502 		ld	a0,40(a0)
 329              	.LVL33:
 330 0268 97000000 		call	_Z8sem_waitP15kernelSemaphore@plt
 330      E7800000 
 331              	.LVL34:
  68:javniTestovi/buffer.cpp ****     sem_wait(mutexTail);
 332              		.loc 1 68 5 is_stmt 1
 333              		.loc 1 68 13 is_stmt 0
 334 0270 03B50403 		ld	a0,48(s1)
 335 0274 97000000 		call	_Z8sem_waitP15kernelSemaphore@plt
 335      E7800000 
 336              	.LVL35:
  69:javniTestovi/buffer.cpp **** 
  70:javniTestovi/buffer.cpp ****     if (tail >= head) {
 337              		.loc 1 70 5 is_stmt 1
 338              		.loc 1 70 9 is_stmt 0
 339 027c 83A74401 		lw	a5,20(s1)
 340              		.loc 1 70 17
 341 0280 03A90401 		lw	s2,16(s1)
 342              		.loc 1 70 5
 343 0284 63CE2703 		blt	a5,s2,.L8
  71:javniTestovi/buffer.cpp ****         ret = tail - head;
 344              		.loc 1 71 9 is_stmt 1
 345              		.loc 1 71 13 is_stmt 0
 346 0288 3B892741 		subw	s2,a5,s2
 347              	.LVL36:
 348              	.L9:
  72:javniTestovi/buffer.cpp ****     } else {
  73:javniTestovi/buffer.cpp ****         ret = cap - head + tail;
  74:javniTestovi/buffer.cpp ****     }
  75:javniTestovi/buffer.cpp **** 
  76:javniTestovi/buffer.cpp ****     sem_signal(mutexTail);
 349              		.loc 1 76 5 is_stmt 1
 350              		.loc 1 76 15 is_stmt 0
 351 028c 03B50403 		ld	a0,48(s1)
 352 0290 97000000 		call	_Z10sem_signalP15kernelSemaphore@plt
 352      E7800000 
 353              	.LVL37:
  77:javniTestovi/buffer.cpp ****     sem_signal(mutexHead);
 354              		.loc 1 77 5 is_stmt 1
 355              		.loc 1 77 15 is_stmt 0
 356 0298 03B58402 		ld	a0,40(s1)
 357 029c 97000000 		call	_Z10sem_signalP15kernelSemaphore@plt
 357      E7800000 
GAS LISTING /tmp/ccCiKDGk.s 			page 9


 358              	.LVL38:
  78:javniTestovi/buffer.cpp **** 
  79:javniTestovi/buffer.cpp ****     return ret;
 359              		.loc 1 79 5 is_stmt 1
  80:javniTestovi/buffer.cpp **** }
 360              		.loc 1 80 1 is_stmt 0
 361 02a4 13050900 		mv	a0,s2
 362 02a8 83308101 		ld	ra,24(sp)
 363              		.cfi_remember_state
 364              		.cfi_restore 1
 365 02ac 03340101 		ld	s0,16(sp)
 366              		.cfi_restore 8
 367              		.cfi_def_cfa 2, 32
 368 02b0 83348100 		ld	s1,8(sp)
 369              		.cfi_restore 9
 370              	.LVL39:
 371 02b4 03390100 		ld	s2,0(sp)
 372              		.cfi_restore 18
 373              	.LVL40:
 374 02b8 13010102 		addi	sp,sp,32
 375              		.cfi_def_cfa_offset 0
 376 02bc 67800000 		jr	ra
 377              	.LVL41:
 378              	.L8:
 379              		.cfi_restore_state
  73:javniTestovi/buffer.cpp ****     }
 380              		.loc 1 73 9 is_stmt 1
  73:javniTestovi/buffer.cpp ****     }
 381              		.loc 1 73 15 is_stmt 0
 382 02c0 03A70400 		lw	a4,0(s1)
  73:javniTestovi/buffer.cpp ****     }
 383              		.loc 1 73 19
 384 02c4 3B092741 		subw	s2,a4,s2
  73:javniTestovi/buffer.cpp ****     }
 385              		.loc 1 73 13
 386 02c8 3B09F900 		addw	s2,s2,a5
 387 02cc 6FF01FFC 		j	.L9
 388              		.cfi_endproc
 389              	.LFE57:
 391              		.section	.rodata.str1.8
 392 0002 00000000 		.align	3
 392      0000
 393              	.LC1:
 394 0008 42756666 		.string	"Buffer deleted!\n"
 394      65722064 
 394      656C6574 
 394      6564210A 
 394      00
 395              		.text
 396              		.align	2
 397              		.globl	_ZN6BufferD2Ev
 399              	_ZN6BufferD2Ev:
 400              	.LFB53:
  20:javniTestovi/buffer.cpp ****     putc('\n');
 401              		.loc 1 20 1 is_stmt 1
 402              		.cfi_startproc
 403              		.cfi_personality 0x9b,DW.ref.__gxx_personality_v0
GAS LISTING /tmp/ccCiKDGk.s 			page 10


 404              		.cfi_lsda 0x1b,.LLSDA53
 405              	.LVL42:
 406 02d0 130101FE 		addi	sp,sp,-32
 407              		.cfi_def_cfa_offset 32
 408 02d4 233C1100 		sd	ra,24(sp)
 409 02d8 23388100 		sd	s0,16(sp)
 410 02dc 23349100 		sd	s1,8(sp)
 411              		.cfi_offset 1, -8
 412              		.cfi_offset 8, -16
 413              		.cfi_offset 9, -24
 414 02e0 13040102 		addi	s0,sp,32
 415              		.cfi_def_cfa 8, 0
 416 02e4 93040500 		mv	s1,a0
 417              	.LBB3:
  21:javniTestovi/buffer.cpp ****     printString("Buffer deleted!\n");
 418              		.loc 1 21 5
  21:javniTestovi/buffer.cpp ****     printString("Buffer deleted!\n");
 419              		.loc 1 21 9 is_stmt 0
 420 02e8 1305A000 		li	a0,10
 421              	.LVL43:
 422 02ec 97000000 		call	_Z4putcc@plt
 422      E7800000 
 423              	.LVL44:
  22:javniTestovi/buffer.cpp ****     while (getCnt() > 0) {
 424              		.loc 1 22 5 is_stmt 1
  22:javniTestovi/buffer.cpp ****     while (getCnt() > 0) {
 425              		.loc 1 22 16 is_stmt 0
 426 02f4 17050000 		lla	a0,.LC1
 426      13050500 
 427 02fc 97000000 		call	_Z11printStringPKc@plt
 427      E7800000 
 428              	.LVL45:
 429              	.L13:
  23:javniTestovi/buffer.cpp ****         char ch = buffer[head];
 430              		.loc 1 23 5 is_stmt 1
  23:javniTestovi/buffer.cpp ****         char ch = buffer[head];
 431              		.loc 1 23 21
  23:javniTestovi/buffer.cpp ****         char ch = buffer[head];
 432              		.loc 1 23 18 is_stmt 0
 433 0304 13850400 		mv	a0,s1
 434 0308 97000000 		call	_ZN6Buffer6getCntEv
 434      E7800000 
 435              	.LVL46:
  23:javniTestovi/buffer.cpp ****         char ch = buffer[head];
 436              		.loc 1 23 21
 437 0310 635CA002 		blez	a0,.L12
 438              	.LBB4:
  24:javniTestovi/buffer.cpp ****         putc(ch);
 439              		.loc 1 24 9 is_stmt 1
  24:javniTestovi/buffer.cpp ****         putc(ch);
 440              		.loc 1 24 19 is_stmt 0
 441 0314 83B78400 		ld	a5,8(s1)
  24:javniTestovi/buffer.cpp ****         putc(ch);
 442              		.loc 1 24 26
 443 0318 03A70401 		lw	a4,16(s1)
  24:javniTestovi/buffer.cpp ****         putc(ch);
 444              		.loc 1 24 30
GAS LISTING /tmp/ccCiKDGk.s 			page 11


 445 031c 13172700 		slli	a4,a4,2
 446 0320 B387E700 		add	a5,a5,a4
 447              	.LVL47:
  25:javniTestovi/buffer.cpp ****         head = (head + 1) % cap;
 448              		.loc 1 25 9 is_stmt 1
  25:javniTestovi/buffer.cpp ****         head = (head + 1) % cap;
 449              		.loc 1 25 13 is_stmt 0
 450 0324 03C50700 		lbu	a0,0(a5)
 451 0328 97000000 		call	_Z4putcc@plt
 451      E7800000 
 452              	.LVL48:
  26:javniTestovi/buffer.cpp ****     }
 453              		.loc 1 26 9 is_stmt 1
  26:javniTestovi/buffer.cpp ****     }
 454              		.loc 1 26 17 is_stmt 0
 455 0330 83A70401 		lw	a5,16(s1)
  26:javniTestovi/buffer.cpp ****     }
 456              		.loc 1 26 22
 457 0334 9B871700 		addiw	a5,a5,1
  26:javniTestovi/buffer.cpp ****     }
 458              		.loc 1 26 29
 459 0338 03A70400 		lw	a4,0(s1)
  26:javniTestovi/buffer.cpp ****     }
 460              		.loc 1 26 27
 461 033c BBE7E702 		remw	a5,a5,a4
  26:javniTestovi/buffer.cpp ****     }
 462              		.loc 1 26 14
 463 0340 23A8F400 		sw	a5,16(s1)
 464              	.LBE4:
  23:javniTestovi/buffer.cpp ****         char ch = buffer[head];
 465              		.loc 1 23 5
 466 0344 6FF01FFC 		j	.L13
 467              	.L12:
  28:javniTestovi/buffer.cpp ****     putc('\n');
 468              		.loc 1 28 5 is_stmt 1
  28:javniTestovi/buffer.cpp ****     putc('\n');
 469              		.loc 1 28 9 is_stmt 0
 470 0348 13051002 		li	a0,33
 471 034c 97000000 		call	_Z4putcc@plt
 471      E7800000 
 472              	.LVL49:
  29:javniTestovi/buffer.cpp **** 
 473              		.loc 1 29 5 is_stmt 1
  29:javniTestovi/buffer.cpp **** 
 474              		.loc 1 29 9 is_stmt 0
 475 0354 1305A000 		li	a0,10
 476 0358 97000000 		call	_Z4putcc@plt
 476      E7800000 
 477              	.LVL50:
  31:javniTestovi/buffer.cpp ****     sem_close(itemAvailable);
 478              		.loc 1 31 5 is_stmt 1
  31:javniTestovi/buffer.cpp ****     sem_close(itemAvailable);
 479              		.loc 1 31 13 is_stmt 0
 480 0360 03B58400 		ld	a0,8(s1)
 481 0364 97000000 		call	_Z8mem_freePv@plt
 481      E7800000 
 482              	.LVL51:
GAS LISTING /tmp/ccCiKDGk.s 			page 12


  32:javniTestovi/buffer.cpp ****     sem_close(spaceAvailable);
 483              		.loc 1 32 5 is_stmt 1
  32:javniTestovi/buffer.cpp ****     sem_close(spaceAvailable);
 484              		.loc 1 32 14 is_stmt 0
 485 036c 03B50402 		ld	a0,32(s1)
 486 0370 97000000 		call	_Z9sem_closeP15kernelSemaphore@plt
 486      E7800000 
 487              	.LVL52:
  33:javniTestovi/buffer.cpp ****     sem_close(mutexTail);
 488              		.loc 1 33 5 is_stmt 1
  33:javniTestovi/buffer.cpp ****     sem_close(mutexTail);
 489              		.loc 1 33 14 is_stmt 0
 490 0378 03B58401 		ld	a0,24(s1)
 491 037c 97000000 		call	_Z9sem_closeP15kernelSemaphore@plt
 491      E7800000 
 492              	.LVL53:
  34:javniTestovi/buffer.cpp ****     sem_close(mutexHead);
 493              		.loc 1 34 5 is_stmt 1
  34:javniTestovi/buffer.cpp ****     sem_close(mutexHead);
 494              		.loc 1 34 14 is_stmt 0
 495 0384 03B50403 		ld	a0,48(s1)
 496 0388 97000000 		call	_Z9sem_closeP15kernelSemaphore@plt
 496      E7800000 
 497              	.LVL54:
  35:javniTestovi/buffer.cpp **** }
 498              		.loc 1 35 5 is_stmt 1
  35:javniTestovi/buffer.cpp **** }
 499              		.loc 1 35 14 is_stmt 0
 500 0390 03B58402 		ld	a0,40(s1)
 501 0394 97000000 		call	_Z9sem_closeP15kernelSemaphore@plt
 501      E7800000 
 502              	.LVL55:
 503              	.LBE3:
  36:javniTestovi/buffer.cpp **** 
 504              		.loc 1 36 1
 505 039c 83308101 		ld	ra,24(sp)
 506              		.cfi_restore 1
 507 03a0 03340101 		ld	s0,16(sp)
 508              		.cfi_restore 8
 509              		.cfi_def_cfa 2, 32
 510 03a4 83348100 		ld	s1,8(sp)
 511              		.cfi_restore 9
 512              	.LVL56:
 513 03a8 13010102 		addi	sp,sp,32
 514              		.cfi_def_cfa_offset 0
 515 03ac 67800000 		jr	ra
 516              		.cfi_endproc
 517              	.LFE53:
 518              		.globl	__gxx_personality_v0
 519              		.section	.gcc_except_table,"a",@progbits
 520              	.LLSDA53:
 521 0000 FF       		.byte	0xff
 522 0001 FF       		.byte	0xff
 523 0002 03       		.byte	0x3
 524 0003 00       		.byte	0
 525              		.text
 527              		.globl	_ZN6BufferD1Ev
GAS LISTING /tmp/ccCiKDGk.s 			page 13


 528              		.set	_ZN6BufferD1Ev,_ZN6BufferD2Ev
 529              	.Letext0:
 530              		.file 2 "javniTestovi/../h/../lib/hw.h"
 531              		.file 3 "javniTestovi/../h/../h/list.hpp"
 532              		.file 4 "javniTestovi/../h/../h/kernelThread.hpp"
 533              		.file 5 "javniTestovi/../h/../h/kernelSemaphore.hpp"
 534              		.file 6 "javniTestovi/../h/syscall_c.hpp"
 535              		.file 7 "javniTestovi/buffer.hpp"
 536              		.file 8 "javniTestovi/printing.hpp"
 3168              		.align	3
 3171              	DW.ref.__gxx_personality_v0:
 3172 0000 00000000 		.dword	__gxx_personality_v0
 3172      00000000 
 3173              		.ident	"GCC: (Ubuntu 9.4.0-1ubuntu1~20.04) 9.4.0"
 3174              		.section	.note.GNU-stack,"",@progbits
GAS LISTING /tmp/ccCiKDGk.s 			page 14

