GAS LISTING /tmp/ccSWKyQE.s 			page 1


   1              		.file	"kernelThread.cpp"
   2              		.option pic
   3              		.option norelax
   4              		.text
   5              	.Ltext0:
   6              		.align	2
   7              		.globl	_ZN12kernelThread13threadWrapperEv
   9              	_ZN12kernelThread13threadWrapperEv:
  10              	.LFB50:
  11              		.file 1 "src/kernelThread.cpp"
   1:src/kernelThread.cpp **** 
   2:src/kernelThread.cpp **** #include "../h/kernelThread.hpp"
   3:src/kernelThread.cpp **** 
   4:src/kernelThread.cpp **** kernelThread *kernelThread::running = nullptr;
   5:src/kernelThread.cpp **** 
   6:src/kernelThread.cpp **** int kernelThread::createThread(kernelThread **handle, Body body, void *args, uint64 *stack) {
   7:src/kernelThread.cpp ****    *handle = new kernelThread(body, args, stack);
   8:src/kernelThread.cpp ****    if(handle == nullptr){
   9:src/kernelThread.cpp ****        return -1;
  10:src/kernelThread.cpp ****    }else{
  11:src/kernelThread.cpp ****        return 0;
  12:src/kernelThread.cpp ****    }
  13:src/kernelThread.cpp **** };
  14:src/kernelThread.cpp **** 
  15:src/kernelThread.cpp **** void kernelThread::threadWrapper(){
  12              		.loc 1 15 35
  13              		.cfi_startproc
  14 0000 130101FE 		addi	sp,sp,-32
  15              		.cfi_def_cfa_offset 32
  16 0004 233C1100 		sd	ra,24(sp)
  17 0008 23388100 		sd	s0,16(sp)
  18 000c 23349100 		sd	s1,8(sp)
  19              		.cfi_offset 1, -8
  20              		.cfi_offset 8, -16
  21              		.cfi_offset 9, -24
  22 0010 13040102 		addi	s0,sp,32
  23              		.cfi_def_cfa 8, 0
  16:src/kernelThread.cpp ****     Riscv::popSppSpie();
  24              		.loc 1 16 5
  25              		.loc 1 16 22 is_stmt 0
  26 0014 97000000 		call	_ZN5Riscv10popSppSpieEv@plt
  26      E7800000 
  27              	.LVL0:
  17:src/kernelThread.cpp ****     running->body(running->arguments);
  28              		.loc 1 17 5 is_stmt 1
  29              		.loc 1 17 14 is_stmt 0
  30 001c 97040000 		lla	s1,.LANCHOR0
  30      93840400 
  31 0024 83B70400 		ld	a5,0(s1)
  32 0028 03B78701 		ld	a4,24(a5)
  33              		.loc 1 17 18
  34 002c 03B50702 		ld	a0,32(a5)
  35 0030 E7000700 		jalr	a4
  36              	.LVL1:
  18:src/kernelThread.cpp ****     running->setFinished(true);
  37              		.loc 1 18 5 is_stmt 1
  38              		.loc 1 18 25 is_stmt 0
GAS LISTING /tmp/ccSWKyQE.s 			page 2


  39 0034 83B70400 		ld	a5,0(s1)
  40              	.LVL2:
  41              	.LBB28:
  42              	.LBB29:
  43              		.file 2 "src/../h/kernelThread.hpp"
   1:src/../h/kernelThread.hpp **** #ifndef KERNEL_THREAD_HPP
   2:src/../h/kernelThread.hpp **** #define KERNEL_THREAD_HPP
   3:src/../h/kernelThread.hpp **** 
   4:src/../h/kernelThread.hpp **** #include "../lib/mem.h"
   5:src/../h/kernelThread.hpp **** //#include "riscv.hpp"
   6:src/../h/kernelThread.hpp **** #include "scheduler.hpp"
   7:src/../h/kernelThread.hpp **** #include "syscall_c.hpp"
   8:src/../h/kernelThread.hpp **** 
   9:src/../h/kernelThread.hpp **** class kernelThread{
  10:src/../h/kernelThread.hpp **** 
  11:src/../h/kernelThread.hpp **** public:
  12:src/../h/kernelThread.hpp ****     static kernelThread *running;   //current running
  13:src/../h/kernelThread.hpp **** 
  14:src/../h/kernelThread.hpp ****     using Body = void(*)(void *);     //possible void(*)(void *)
  15:src/../h/kernelThread.hpp **** 
  16:src/../h/kernelThread.hpp ****     static int createThread(
  17:src/../h/kernelThread.hpp ****                 kernelThread **handle,
  18:src/../h/kernelThread.hpp ****                 Body body,
  19:src/../h/kernelThread.hpp ****                 void *args,
  20:src/../h/kernelThread.hpp ****                 uint64 *stack);
  21:src/../h/kernelThread.hpp ****     static int threadExit();
  22:src/../h/kernelThread.hpp ****     static void dispatchThread();
  23:src/../h/kernelThread.hpp ****     static int startThread(kernelThread *handle);
  24:src/../h/kernelThread.hpp ****     static void yield();
  25:src/../h/kernelThread.hpp ****     static int deleteThread(kernelThread *handle);
  26:src/../h/kernelThread.hpp **** 
  27:src/../h/kernelThread.hpp ****     ~kernelThread(){
  28:src/../h/kernelThread.hpp ****         //MemoryAllocator::getInstance().mem_free(stack);
  29:src/../h/kernelThread.hpp ****         //mem_free(stack);
  30:src/../h/kernelThread.hpp ****         delete stack;
  31:src/../h/kernelThread.hpp ****     };
  32:src/../h/kernelThread.hpp **** 
  33:src/../h/kernelThread.hpp ****     struct Context{
  34:src/../h/kernelThread.hpp ****         uint64 ra;
  35:src/../h/kernelThread.hpp ****         uint64 sp;
  36:src/../h/kernelThread.hpp ****     };
  37:src/../h/kernelThread.hpp **** 
  38:src/../h/kernelThread.hpp ****     static void contextSwitch(Context *oldContext, Context *runningContext);
  39:src/../h/kernelThread.hpp ****     static void threadWrapper();
  40:src/../h/kernelThread.hpp **** 
  41:src/../h/kernelThread.hpp ****     //  GETTERS & SETTERS  //
  42:src/../h/kernelThread.hpp **** 
  43:src/../h/kernelThread.hpp ****     bool isReady() const {
  44:src/../h/kernelThread.hpp ****         return ready;
  45:src/../h/kernelThread.hpp ****     }
  46:src/../h/kernelThread.hpp **** 
  47:src/../h/kernelThread.hpp ****     void setReady(bool ready) {
  48:src/../h/kernelThread.hpp ****         kernelThread::ready = ready;
  49:src/../h/kernelThread.hpp ****     }
  50:src/../h/kernelThread.hpp **** 
  51:src/../h/kernelThread.hpp ****     bool isBlocked() const {
  52:src/../h/kernelThread.hpp ****         return blocked;
GAS LISTING /tmp/ccSWKyQE.s 			page 3


  53:src/../h/kernelThread.hpp ****     }
  54:src/../h/kernelThread.hpp **** 
  55:src/../h/kernelThread.hpp ****     void setBlocked(bool blocked) {
  56:src/../h/kernelThread.hpp ****         kernelThread::blocked = blocked;
  57:src/../h/kernelThread.hpp ****     }
  58:src/../h/kernelThread.hpp **** 
  59:src/../h/kernelThread.hpp ****     bool isFinished() const {
  60:src/../h/kernelThread.hpp ****         return finished;
  61:src/../h/kernelThread.hpp ****     }
  62:src/../h/kernelThread.hpp **** 
  63:src/../h/kernelThread.hpp ****     void setFinished(bool finished) {
  64:src/../h/kernelThread.hpp ****         kernelThread::finished = finished;
  44              		.loc 2 64 9 is_stmt 1
  45              		.loc 2 64 32 is_stmt 0
  46 0038 13071000 		li	a4,1
  47 003c 2385E702 		sb	a4,42(a5)
  48              	.LVL3:
  49              	.LBE29:
  50              	.LBE28:
  19:src/kernelThread.cpp ****     Riscv::ecallWithoutArguments(0x13);
  51              		.loc 1 19 5 is_stmt 1
  52              		.loc 1 19 33 is_stmt 0
  53 0040 13053001 		li	a0,19
  54 0044 97000000 		call	_ZN5Riscv21ecallWithoutArgumentsEm@plt
  54      E7800000 
  55              	.LVL4:
  20:src/kernelThread.cpp ****     //kernelThread::dispatchThread();
  21:src/kernelThread.cpp **** };
  56              		.loc 1 21 1
  57 004c 83308101 		ld	ra,24(sp)
  58              		.cfi_restore 1
  59 0050 03340101 		ld	s0,16(sp)
  60              		.cfi_restore 8
  61              		.cfi_def_cfa 2, 32
  62 0054 83348100 		ld	s1,8(sp)
  63              		.cfi_restore 9
  64 0058 13010102 		addi	sp,sp,32
  65              		.cfi_def_cfa_offset 0
  66 005c 67800000 		jr	ra
  67              		.cfi_endproc
  68              	.LFE50:
  70              		.align	2
  71              		.globl	_ZN12kernelThread12createThreadEPPS_PFvPvES2_Pm
  73              	_ZN12kernelThread12createThreadEPPS_PFvPvES2_Pm:
  74              	.LFB49:
   6:src/kernelThread.cpp ****    *handle = new kernelThread(body, args, stack);
  75              		.loc 1 6 93 is_stmt 1
  76              		.cfi_startproc
  77              		.cfi_personality 0x9b,DW.ref.__gxx_personality_v0
  78              		.cfi_lsda 0x1b,.LLSDA49
  79              	.LVL5:
  80 0060 130101FC 		addi	sp,sp,-64
  81              		.cfi_def_cfa_offset 64
  82 0064 233C1102 		sd	ra,56(sp)
  83 0068 23388102 		sd	s0,48(sp)
  84 006c 23349102 		sd	s1,40(sp)
  85 0070 23302103 		sd	s2,32(sp)
GAS LISTING /tmp/ccSWKyQE.s 			page 4


  86 0074 233C3101 		sd	s3,24(sp)
  87 0078 23384101 		sd	s4,16(sp)
  88 007c 23345101 		sd	s5,8(sp)
  89              		.cfi_offset 1, -8
  90              		.cfi_offset 8, -16
  91              		.cfi_offset 9, -24
  92              		.cfi_offset 18, -32
  93              		.cfi_offset 19, -40
  94              		.cfi_offset 20, -48
  95              		.cfi_offset 21, -56
  96 0080 13040104 		addi	s0,sp,64
  97              		.cfi_def_cfa 8, 0
  98 0084 93090500 		mv	s3,a0
  99 0088 13890500 		mv	s2,a1
 100 008c 930A0600 		mv	s5,a2
 101 0090 138A0600 		mv	s4,a3
   7:src/kernelThread.cpp ****    if(handle == nullptr){
 102              		.loc 1 7 4
   7:src/kernelThread.cpp ****    if(handle == nullptr){
 103              		.loc 1 7 48 is_stmt 0
 104 0094 13050003 		li	a0,48
 105              	.LVL6:
 106              	.LEHB0:
 107 0098 97000000 		call	_Znwm@plt
 107      E7800000 
 108              	.LVL7:
 109              	.LEHE0:
 110 00a0 93040500 		mv	s1,a0
 111              	.LVL8:
 112              	.LBB34:
 113              	.LBB35:
  65:src/../h/kernelThread.hpp ****     }
  66:src/../h/kernelThread.hpp **** 
  67:src/../h/kernelThread.hpp ****     Context context;
  68:src/../h/kernelThread.hpp **** 
  69:src/../h/kernelThread.hpp **** private:
  70:src/../h/kernelThread.hpp **** 
  71:src/../h/kernelThread.hpp ****     //CLASS FIELDS
  72:src/../h/kernelThread.hpp ****     uint64 *stack;
  73:src/../h/kernelThread.hpp ****     Body body;
  74:src/../h/kernelThread.hpp ****     void *arguments;
  75:src/../h/kernelThread.hpp **** 
  76:src/../h/kernelThread.hpp ****     bool ready;
  77:src/../h/kernelThread.hpp ****     bool blocked;
  78:src/../h/kernelThread.hpp ****     bool finished;
  79:src/../h/kernelThread.hpp **** 
  80:src/../h/kernelThread.hpp ****     friend class Riscv;
  81:src/../h/kernelThread.hpp **** 
  82:src/../h/kernelThread.hpp ****     explicit kernelThread(Body body, void *args, uint64 *stack){
  83:src/../h/kernelThread.hpp ****         this->arguments = args;
 114              		.loc 2 83 9 is_stmt 1
 115              		.loc 2 83 25 is_stmt 0
 116 00a4 23305503 		sd	s5,32(a0)
  84:src/../h/kernelThread.hpp ****         this->body = body;
 117              		.loc 2 84 9 is_stmt 1
 118              		.loc 2 84 20 is_stmt 0
 119 00a8 233C2501 		sd	s2,24(a0)
GAS LISTING /tmp/ccSWKyQE.s 			page 5


  85:src/../h/kernelThread.hpp **** 
  86:src/../h/kernelThread.hpp ****         if (body != nullptr){
 120              		.loc 2 86 9 is_stmt 1
 121 00ac 63060904 		beqz	s2,.L4
  87:src/../h/kernelThread.hpp ****             this->stack = stack;
 122              		.loc 2 87 13
 123              		.loc 2 87 25 is_stmt 0
 124 00b0 23384501 		sd	s4,16(a0)
 125              	.L5:
  88:src/../h/kernelThread.hpp ****         } else{
  89:src/../h/kernelThread.hpp ****             this->stack = nullptr;
  90:src/../h/kernelThread.hpp ****         }
  91:src/../h/kernelThread.hpp **** 
  92:src/../h/kernelThread.hpp ****         this->finished = false;
 126              		.loc 2 92 9 is_stmt 1
 127              		.loc 2 92 24 is_stmt 0
 128 00b4 23850402 		sb	zero,42(s1)
  93:src/../h/kernelThread.hpp ****         this->blocked = false;
 129              		.loc 2 93 9 is_stmt 1
 130              		.loc 2 93 23 is_stmt 0
 131 00b8 A3840402 		sb	zero,41(s1)
  94:src/../h/kernelThread.hpp ****         this->ready = true;
 132              		.loc 2 94 9 is_stmt 1
 133              		.loc 2 94 21 is_stmt 0
 134 00bc 93071000 		li	a5,1
 135 00c0 2384F402 		sb	a5,40(s1)
  95:src/../h/kernelThread.hpp **** 
  96:src/../h/kernelThread.hpp ****         context.ra = (uint64) &threadWrapper;
 136              		.loc 2 96 9 is_stmt 1
 137              		.loc 2 96 20 is_stmt 0
 138 00c4 97070000 		lla	a5,_ZN12kernelThread13threadWrapperEv
 138      93870700 
 139 00cc 23B0F400 		sd	a5,0(s1)
  97:src/../h/kernelThread.hpp ****         if(stack != nullptr){
 140              		.loc 2 97 9 is_stmt 1
 141 00d0 63080A02 		beqz	s4,.L6
  98:src/../h/kernelThread.hpp ****             context.sp = (uint64) &(this->stack[DEFAULT_STACK_SIZE]);
 142              		.loc 2 98 13
 143              		.loc 2 98 43 is_stmt 0
 144 00d4 83B70401 		ld	a5,16(s1)
 145              		.loc 2 98 35
 146 00d8 37870000 		li	a4,32768
 147 00dc B387E700 		add	a5,a5,a4
 148              		.loc 2 98 24
 149 00e0 23B4F400 		sd	a5,8(s1)
 150              	.L7:
  99:src/../h/kernelThread.hpp ****         } else {
 100:src/../h/kernelThread.hpp ****             context.sp = 0;
 101:src/../h/kernelThread.hpp ****         }
 102:src/../h/kernelThread.hpp **** 
 103:src/../h/kernelThread.hpp ****         if (body != nullptr){
 151              		.loc 2 103 9 is_stmt 1
 152 00e4 63020902 		beqz	s2,.L8
 104:src/../h/kernelThread.hpp ****                 this->setReady(true);
 153              		.loc 2 104 17
 154              	.LVL9:
 155              	.LBE35:
GAS LISTING /tmp/ccSWKyQE.s 			page 6


 156              	.LBE34:
  48:src/../h/kernelThread.hpp ****     }
 157              		.loc 2 48 9
 158              	.LBB37:
 159              	.LBB36:
 105:src/../h/kernelThread.hpp ****                 Scheduler::putInScheduler(this);
 160              		.loc 2 105 17
 161              		.loc 2 105 42 is_stmt 0
 162 00e8 13850400 		mv	a0,s1
 163              	.LEHB1:
 164 00ec 97000000 		call	_ZN9Scheduler14putInSchedulerEP12kernelThread@plt
 164      E7800000 
 165              	.LVL10:
 166              	.LEHE1:
 167 00f4 6F004001 		j	.L8
 168              	.L4:
  89:src/../h/kernelThread.hpp ****         }
 169              		.loc 2 89 13 is_stmt 1
  89:src/../h/kernelThread.hpp ****         }
 170              		.loc 2 89 25 is_stmt 0
 171 00f8 23380500 		sd	zero,16(a0)
 172 00fc 6FF09FFB 		j	.L5
 173              	.L6:
 100:src/../h/kernelThread.hpp ****         }
 174              		.loc 2 100 13 is_stmt 1
 100:src/../h/kernelThread.hpp ****         }
 175              		.loc 2 100 24 is_stmt 0
 176 0100 23B40400 		sd	zero,8(s1)
 177 0104 6FF01FFE 		j	.L7
 178              	.L8:
 179              	.LVL11:
 180              	.LBE36:
 181              	.LBE37:
   7:src/kernelThread.cpp ****    if(handle == nullptr){
 182              		.loc 1 7 12
 183 0108 23B09900 		sd	s1,0(s3)
   8:src/kernelThread.cpp ****        return -1;
 184              		.loc 1 8 4 is_stmt 1
 185 010c 63860902 		beqz	s3,.L15
  11:src/kernelThread.cpp ****    }
 186              		.loc 1 11 15 is_stmt 0
 187 0110 13050000 		li	a0,0
 188              	.L13:
  13:src/kernelThread.cpp **** 
 189              		.loc 1 13 1
 190 0114 83308103 		ld	ra,56(sp)
 191              		.cfi_remember_state
 192              		.cfi_restore 1
 193 0118 03340103 		ld	s0,48(sp)
 194              		.cfi_restore 8
 195              		.cfi_def_cfa 2, 64
 196 011c 83348102 		ld	s1,40(sp)
 197              		.cfi_restore 9
 198 0120 03390102 		ld	s2,32(sp)
 199              		.cfi_restore 18
 200              	.LVL12:
 201 0124 83398101 		ld	s3,24(sp)
GAS LISTING /tmp/ccSWKyQE.s 			page 7


 202              		.cfi_restore 19
 203              	.LVL13:
 204 0128 033A0101 		ld	s4,16(sp)
 205              		.cfi_restore 20
 206              	.LVL14:
 207 012c 833A8100 		ld	s5,8(sp)
 208              		.cfi_restore 21
 209              	.LVL15:
 210 0130 13010104 		addi	sp,sp,64
 211              		.cfi_def_cfa_offset 0
 212 0134 67800000 		jr	ra
 213              	.LVL16:
 214              	.L15:
 215              		.cfi_restore_state
   9:src/kernelThread.cpp ****    }else{
 216              		.loc 1 9 16
 217 0138 1305F0FF 		li	a0,-1
 218 013c 6FF09FFD 		j	.L13
 219              	.LVL17:
 220              	.L12:
 221 0140 13090500 		mv	s2,a0
 222              	.LVL18:
   7:src/kernelThread.cpp ****    if(handle == nullptr){
 223              		.loc 1 7 48
 224 0144 13850400 		mv	a0,s1
 225 0148 97000000 		call	_ZdlPv@plt
 225      E7800000 
 226              	.LVL19:
 227 0150 13050900 		mv	a0,s2
 228              	.LEHB2:
 229 0154 97000000 		call	_Unwind_Resume@plt
 229      E7800000 
 230              	.LVL20:
 231              	.LEHE2:
 232              		.cfi_endproc
 233              	.LFE49:
 234              		.globl	__gxx_personality_v0
 235              		.section	.gcc_except_table,"a",@progbits
 236              	.LLSDA49:
 237 0000 FF       		.byte	0xff
 238 0001 FF       		.byte	0xff
 239 0002 03       		.byte	0x3
 240 0003 27       		.byte	0x27
 241 0004 00000000 		.4byte	.LEHB0-.LFB49
 242 0008 00000000 		.4byte	.LEHE0-.LEHB0
 243 000c 00000000 		.4byte	0
 244 0010 00       		.byte	0
 245 0011 00000000 		.4byte	.LEHB1-.LFB49
 246 0015 00000000 		.4byte	.LEHE1-.LEHB1
 247 0019 00000000 		.4byte	.L12-.LFB49
 248 001d 00       		.byte	0
 249 001e 00000000 		.4byte	.LEHB2-.LFB49
 250 0022 00000000 		.4byte	.LEHE2-.LEHB2
 251 0026 00000000 		.4byte	0
 252 002a 00       		.byte	0
 253              		.text
 255              		.align	2
GAS LISTING /tmp/ccSWKyQE.s 			page 8


 256              		.globl	_ZN12kernelThread14dispatchThreadEv
 258              	_ZN12kernelThread14dispatchThreadEv:
 259              	.LFB52:
  22:src/kernelThread.cpp **** 
  23:src/kernelThread.cpp **** void kernelThread::yield() {
  24:src/kernelThread.cpp ****     Riscv::pushAllRegisters();
  25:src/kernelThread.cpp ****     kernelThread::dispatchThread();
  26:src/kernelThread.cpp ****     Riscv::popAllRegisters();
  27:src/kernelThread.cpp **** };
  28:src/kernelThread.cpp **** 
  29:src/kernelThread.cpp **** void kernelThread::dispatchThread(){
 260              		.loc 1 29 36 is_stmt 1
 261              		.cfi_startproc
 262 015c 130101FE 		addi	sp,sp,-32
 263              		.cfi_def_cfa_offset 32
 264 0160 233C1100 		sd	ra,24(sp)
 265 0164 23388100 		sd	s0,16(sp)
 266 0168 23349100 		sd	s1,8(sp)
 267              		.cfi_offset 1, -8
 268              		.cfi_offset 8, -16
 269              		.cfi_offset 9, -24
 270 016c 13040102 		addi	s0,sp,32
 271              		.cfi_def_cfa 8, 0
  30:src/kernelThread.cpp ****     kernelThread *oldThread = running;
 272              		.loc 1 30 5
 273              		.loc 1 30 19 is_stmt 0
 274 0170 97040000 		ld	s1,.LANCHOR0
 274      83B40400 
 275              	.LVL21:
  31:src/kernelThread.cpp ****     if(!oldThread->isBlocked()){
 276              		.loc 1 31 5 is_stmt 1
 277              	.LBB38:
 278              	.LBB39:
  52:src/../h/kernelThread.hpp ****     }
 279              		.loc 2 52 9
  52:src/../h/kernelThread.hpp ****     }
 280              		.loc 2 52 16 is_stmt 0
 281 0178 83C79402 		lbu	a5,41(s1)
 282              	.LVL22:
 283              	.LBE39:
 284              	.LBE38:
 285              		.loc 1 31 5
 286 017c 63960700 		bnez	a5,.L17
  32:src/kernelThread.cpp ****         if(!oldThread->isFinished()){
 287              		.loc 1 32 9 is_stmt 1
 288              	.LVL23:
 289              	.LBB40:
 290              	.LBB41:
  60:src/../h/kernelThread.hpp ****     }
 291              		.loc 2 60 9
  60:src/../h/kernelThread.hpp ****     }
 292              		.loc 2 60 16 is_stmt 0
 293 0180 83C7A402 		lbu	a5,42(s1)
 294              	.LVL24:
 295              	.LBE41:
 296              	.LBE40:
 297              		.loc 1 32 9
GAS LISTING /tmp/ccSWKyQE.s 			page 9


 298 0184 638C0702 		beqz	a5,.L19
 299              	.L17:
  33:src/kernelThread.cpp ****             oldThread->setReady(true);
  34:src/kernelThread.cpp ****             Scheduler::putInScheduler(oldThread);
  35:src/kernelThread.cpp ****         }
  36:src/kernelThread.cpp ****     }
  37:src/kernelThread.cpp ****     running = Scheduler::getFromScheduler();
 300              		.loc 1 37 5 is_stmt 1
 301              		.loc 1 37 42 is_stmt 0
 302 0188 97000000 		call	_ZN9Scheduler16getFromSchedulerEv@plt
 302      E7800000 
 303              	.LVL25:
 304 0190 93050500 		mv	a1,a0
 305              		.loc 1 37 13
 306 0194 97070000 		sd	a0,.LANCHOR0,a5
 306      23B0A700 
  38:src/kernelThread.cpp ****     kernelThread::contextSwitch(&oldThread->context, &running->context);
 307              		.loc 1 38 5 is_stmt 1
 308              		.loc 1 38 32 is_stmt 0
 309 019c 13850400 		mv	a0,s1
 310 01a0 97000000 		call	_ZN12kernelThread13contextSwitchEPNS_7ContextES1_@plt
 310      E7800000 
 311              	.LVL26:
  39:src/kernelThread.cpp **** };
 312              		.loc 1 39 1
 313 01a8 83308101 		ld	ra,24(sp)
 314              		.cfi_remember_state
 315              		.cfi_restore 1
 316 01ac 03340101 		ld	s0,16(sp)
 317              		.cfi_restore 8
 318              		.cfi_def_cfa 2, 32
 319 01b0 83348100 		ld	s1,8(sp)
 320              		.cfi_restore 9
 321              	.LVL27:
 322 01b4 13010102 		addi	sp,sp,32
 323              		.cfi_def_cfa_offset 0
 324 01b8 67800000 		jr	ra
 325              	.LVL28:
 326              	.L19:
 327              		.cfi_restore_state
  33:src/kernelThread.cpp ****             oldThread->setReady(true);
 328              		.loc 1 33 13 is_stmt 1
 329              	.LBB42:
 330              	.LBB43:
  48:src/../h/kernelThread.hpp ****     }
 331              		.loc 2 48 9
  48:src/../h/kernelThread.hpp ****     }
 332              		.loc 2 48 29 is_stmt 0
 333 01bc 93071000 		li	a5,1
 334 01c0 2384F402 		sb	a5,40(s1)
 335              	.LVL29:
 336              	.LBE43:
 337              	.LBE42:
  34:src/kernelThread.cpp ****         }
 338              		.loc 1 34 13 is_stmt 1
  34:src/kernelThread.cpp ****         }
 339              		.loc 1 34 38 is_stmt 0
GAS LISTING /tmp/ccSWKyQE.s 			page 10


 340 01c4 13850400 		mv	a0,s1
 341 01c8 97000000 		call	_ZN9Scheduler14putInSchedulerEP12kernelThread@plt
 341      E7800000 
 342              	.LVL30:
 343 01d0 6FF09FFB 		j	.L17
 344              		.cfi_endproc
 345              	.LFE52:
 347              		.align	2
 348              		.globl	_ZN12kernelThread5yieldEv
 350              	_ZN12kernelThread5yieldEv:
 351              	.LFB51:
  23:src/kernelThread.cpp ****     Riscv::pushAllRegisters();
 352              		.loc 1 23 28 is_stmt 1
 353              		.cfi_startproc
 354 01d4 130101FF 		addi	sp,sp,-16
 355              		.cfi_def_cfa_offset 16
 356 01d8 23341100 		sd	ra,8(sp)
 357 01dc 23308100 		sd	s0,0(sp)
 358              		.cfi_offset 1, -8
 359              		.cfi_offset 8, -16
 360 01e0 13040101 		addi	s0,sp,16
 361              		.cfi_def_cfa 8, 0
  24:src/kernelThread.cpp ****     kernelThread::dispatchThread();
 362              		.loc 1 24 5
  24:src/kernelThread.cpp ****     kernelThread::dispatchThread();
 363              		.loc 1 24 28 is_stmt 0
 364 01e4 97000000 		call	_ZN5Riscv16pushAllRegistersEv@plt
 364      E7800000 
 365              	.LVL31:
  25:src/kernelThread.cpp ****     Riscv::popAllRegisters();
 366              		.loc 1 25 5 is_stmt 1
  25:src/kernelThread.cpp ****     Riscv::popAllRegisters();
 367              		.loc 1 25 33 is_stmt 0
 368 01ec 97000000 		call	_ZN12kernelThread14dispatchThreadEv
 368      E7800000 
 369              	.LVL32:
  26:src/kernelThread.cpp **** };
 370              		.loc 1 26 5 is_stmt 1
  26:src/kernelThread.cpp **** };
 371              		.loc 1 26 27 is_stmt 0
 372 01f4 97000000 		call	_ZN5Riscv15popAllRegistersEv@plt
 372      E7800000 
 373              	.LVL33:
  27:src/kernelThread.cpp **** 
 374              		.loc 1 27 1
 375 01fc 83308100 		ld	ra,8(sp)
 376              		.cfi_restore 1
 377 0200 03340100 		ld	s0,0(sp)
 378              		.cfi_restore 8
 379              		.cfi_def_cfa 2, 16
 380 0204 13010101 		addi	sp,sp,16
 381              		.cfi_def_cfa_offset 0
 382 0208 67800000 		jr	ra
 383              		.cfi_endproc
 384              	.LFE51:
 386              		.align	2
 387              		.globl	_ZN12kernelThread10threadExitEv
GAS LISTING /tmp/ccSWKyQE.s 			page 11


 389              	_ZN12kernelThread10threadExitEv:
 390              	.LFB53:
  40:src/kernelThread.cpp **** 
  41:src/kernelThread.cpp **** int kernelThread::threadExit() {
 391              		.loc 1 41 32 is_stmt 1
 392              		.cfi_startproc
 393 020c 130101FF 		addi	sp,sp,-16
 394              		.cfi_def_cfa_offset 16
 395 0210 23341100 		sd	ra,8(sp)
 396 0214 23308100 		sd	s0,0(sp)
 397              		.cfi_offset 1, -8
 398              		.cfi_offset 8, -16
 399 0218 13040101 		addi	s0,sp,16
 400              		.cfi_def_cfa 8, 0
  42:src/kernelThread.cpp ****     running->setReady(false);
 401              		.loc 1 42 5
 402              		.loc 1 42 22 is_stmt 0
 403 021c 97070000 		ld	a5,.LANCHOR0
 403      83B70700 
 404              	.LVL34:
 405              	.LBB44:
 406              	.LBB45:
  48:src/../h/kernelThread.hpp ****     }
 407              		.loc 2 48 9 is_stmt 1
  48:src/../h/kernelThread.hpp ****     }
 408              		.loc 2 48 29 is_stmt 0
 409 0224 23840702 		sb	zero,40(a5)
 410              	.LVL35:
 411              	.LBE45:
 412              	.LBE44:
  43:src/kernelThread.cpp ****     running->setFinished(true);
 413              		.loc 1 43 5 is_stmt 1
 414              	.LBB46:
 415              	.LBB47:
  64:src/../h/kernelThread.hpp ****     }
 416              		.loc 2 64 9
  64:src/../h/kernelThread.hpp ****     }
 417              		.loc 2 64 32 is_stmt 0
 418 0228 13071000 		li	a4,1
 419 022c 2385E702 		sb	a4,42(a5)
 420              	.LVL36:
 421              	.LBE47:
 422              	.LBE46:
  44:src/kernelThread.cpp ****     running->setBlocked(false);
 423              		.loc 1 44 5 is_stmt 1
 424              	.LBB48:
 425              	.LBB49:
  56:src/../h/kernelThread.hpp ****     }
 426              		.loc 2 56 9
  56:src/../h/kernelThread.hpp ****     }
 427              		.loc 2 56 31 is_stmt 0
 428 0230 A3840702 		sb	zero,41(a5)
 429              	.LVL37:
 430              	.LBE49:
 431              	.LBE48:
  45:src/kernelThread.cpp ****     kernelThread::dispatchThread();
 432              		.loc 1 45 5 is_stmt 1
GAS LISTING /tmp/ccSWKyQE.s 			page 12


 433              		.loc 1 45 33 is_stmt 0
 434 0234 97000000 		call	_ZN12kernelThread14dispatchThreadEv
 434      E7800000 
 435              	.LVL38:
  46:src/kernelThread.cpp ****     return 0;
 436              		.loc 1 46 5 is_stmt 1
  47:src/kernelThread.cpp **** };
 437              		.loc 1 47 1 is_stmt 0
 438 023c 13050000 		li	a0,0
 439 0240 83308100 		ld	ra,8(sp)
 440              		.cfi_restore 1
 441 0244 03340100 		ld	s0,0(sp)
 442              		.cfi_restore 8
 443              		.cfi_def_cfa 2, 16
 444 0248 13010101 		addi	sp,sp,16
 445              		.cfi_def_cfa_offset 0
 446 024c 67800000 		jr	ra
 447              		.cfi_endproc
 448              	.LFE53:
 450              		.align	2
 451              		.globl	_ZN12kernelThread12deleteThreadEPS_
 453              	_ZN12kernelThread12deleteThreadEPS_:
 454              	.LFB54:
  48:src/kernelThread.cpp **** 
  49:src/kernelThread.cpp **** int kernelThread::deleteThread(kernelThread *handle) {
 455              		.loc 1 49 54 is_stmt 1
 456              		.cfi_startproc
 457              	.LVL39:
 458 0250 130101FE 		addi	sp,sp,-32
 459              		.cfi_def_cfa_offset 32
 460 0254 233C1100 		sd	ra,24(sp)
 461 0258 23388100 		sd	s0,16(sp)
 462 025c 23349100 		sd	s1,8(sp)
 463              		.cfi_offset 1, -8
 464              		.cfi_offset 8, -16
 465              		.cfi_offset 9, -24
 466 0260 13040102 		addi	s0,sp,32
 467              		.cfi_def_cfa 8, 0
 468 0264 93040500 		mv	s1,a0
  50:src/kernelThread.cpp ****     kernelThread::threadExit();
 469              		.loc 1 50 5
 470              		.loc 1 50 29 is_stmt 0
 471 0268 97000000 		call	_ZN12kernelThread10threadExitEv
 471      E7800000 
 472              	.LVL40:
  51:src/kernelThread.cpp ****     delete handle;
 473              		.loc 1 51 5 is_stmt 1
 474              		.loc 1 51 18 is_stmt 0
 475 0270 63800402 		beqz	s1,.L25
 476              	.LVL41:
 477              	.LBB50:
 478              	.LBB51:
  30:src/../h/kernelThread.hpp ****     };
 479              		.loc 2 30 9 is_stmt 1
  30:src/../h/kernelThread.hpp ****     };
 480              		.loc 2 30 16 is_stmt 0
 481 0274 03B50401 		ld	a0,16(s1)
GAS LISTING /tmp/ccSWKyQE.s 			page 13


  30:src/../h/kernelThread.hpp ****     };
 482              		.loc 2 30 21
 483 0278 63060500 		beqz	a0,.L26
  30:src/../h/kernelThread.hpp ****     };
 484              		.loc 2 30 16
 485 027c 97000000 		call	_ZdlPv@plt
 485      E7800000 
 486              	.LVL42:
 487              	.L26:
 488              	.LBE51:
 489              	.LBE50:
 490              		.loc 1 51 12
 491 0284 13850400 		mv	a0,s1
 492 0288 97000000 		call	_ZdlPv@plt
 492      E7800000 
 493              	.LVL43:
 494              	.L25:
  52:src/kernelThread.cpp ****     return 0;
 495              		.loc 1 52 5 is_stmt 1
  53:src/kernelThread.cpp **** };
 496              		.loc 1 53 1 is_stmt 0
 497 0290 13050000 		li	a0,0
 498 0294 83308101 		ld	ra,24(sp)
 499              		.cfi_restore 1
 500 0298 03340101 		ld	s0,16(sp)
 501              		.cfi_restore 8
 502              		.cfi_def_cfa 2, 32
 503 029c 83348100 		ld	s1,8(sp)
 504              		.cfi_restore 9
 505              	.LVL44:
 506 02a0 13010102 		addi	sp,sp,32
 507              		.cfi_def_cfa_offset 0
 508 02a4 67800000 		jr	ra
 509              		.cfi_endproc
 510              	.LFE54:
 512              		.align	2
 513              		.globl	_ZN12kernelThread11startThreadEPS_
 515              	_ZN12kernelThread11startThreadEPS_:
 516              	.LFB55:
  54:src/kernelThread.cpp **** 
  55:src/kernelThread.cpp **** int kernelThread::startThread(kernelThread *handle) {
 517              		.loc 1 55 53 is_stmt 1
 518              		.cfi_startproc
 519              	.LVL45:
 520 02a8 130101FF 		addi	sp,sp,-16
 521              		.cfi_def_cfa_offset 16
 522 02ac 23348100 		sd	s0,8(sp)
 523              		.cfi_offset 8, -8
 524 02b0 13040101 		addi	s0,sp,16
 525              		.cfi_def_cfa 8, 0
  56:src/kernelThread.cpp ****     if(handle->isFinished()){
 526              		.loc 1 56 5
 527              	.LVL46:
 528              	.LBB52:
 529              	.LBB53:
  60:src/../h/kernelThread.hpp ****     }
 530              		.loc 2 60 9
GAS LISTING /tmp/ccSWKyQE.s 			page 14


  60:src/../h/kernelThread.hpp ****     }
 531              		.loc 2 60 16 is_stmt 0
 532 02b4 8347A502 		lbu	a5,42(a0)
 533              	.LVL47:
 534              	.LBE53:
 535              	.LBE52:
 536              		.loc 1 56 5
 537 02b8 63900702 		bnez	a5,.L30
  57:src/kernelThread.cpp ****         return -1;
  58:src/kernelThread.cpp ****     }else{
  59:src/kernelThread.cpp ****         handle->setBlocked(false);  //IN SEMAPHORE
 538              		.loc 1 59 9 is_stmt 1
 539              	.LVL48:
 540              	.LBB54:
 541              	.LBB55:
  56:src/../h/kernelThread.hpp ****     }
 542              		.loc 2 56 9
  56:src/../h/kernelThread.hpp ****     }
 543              		.loc 2 56 31 is_stmt 0
 544 02bc A3040502 		sb	zero,41(a0)
 545              	.LVL49:
 546              	.LBE55:
 547              	.LBE54:
  60:src/kernelThread.cpp ****         handle->setReady(true);
 548              		.loc 1 60 9 is_stmt 1
 549              	.LBB56:
 550              	.LBB57:
  48:src/../h/kernelThread.hpp ****     }
 551              		.loc 2 48 9
  48:src/../h/kernelThread.hpp ****     }
 552              		.loc 2 48 29 is_stmt 0
 553 02c0 93071000 		li	a5,1
 554 02c4 2304F502 		sb	a5,40(a0)
 555              	.LVL50:
 556              	.LBE57:
 557              	.LBE56:
  61:src/kernelThread.cpp ****         //Scheduler::putInScheduler(handle);
  62:src/kernelThread.cpp ****         return 0;
 558              		.loc 1 62 9 is_stmt 1
 559              		.loc 1 62 16 is_stmt 0
 560 02c8 13050000 		li	a0,0
 561              	.LVL51:
 562              	.L29:
  63:src/kernelThread.cpp ****     }
  64:src/kernelThread.cpp **** };...
 563              		.loc 1 64 1
 564 02cc 03348100 		ld	s0,8(sp)
 565              		.cfi_remember_state
 566              		.cfi_restore 8
 567              		.cfi_def_cfa 2, 16
 568 02d0 13010101 		addi	sp,sp,16
 569              		.cfi_def_cfa_offset 0
 570 02d4 67800000 		jr	ra
 571              	.LVL52:
 572              	.L30:
 573              		.cfi_restore_state
  57:src/kernelThread.cpp ****         return -1;
GAS LISTING /tmp/ccSWKyQE.s 			page 15


 574              		.loc 1 57 17
 575 02d8 1305F0FF 		li	a0,-1
 576              	.LVL53:
 577 02dc 6FF01FFF 		j	.L29
 578              		.cfi_endproc
 579              	.LFE55:
 581              		.globl	_ZN12kernelThread7runningE
 582              		.bss
 583              		.align	3
 584              		.set	.LANCHOR0,. + 0
 587              	_ZN12kernelThread7runningE:
 588 0000 00000000 		.zero	8
 588      00000000 
 589              		.text
 590              	.Letext0:
 591              		.file 3 "src/../h/../lib/hw.h"
 592              		.file 4 "src/../h/scheduler.hpp"
 593              		.file 5 "src/../h/list.hpp"
 594              		.file 6 "src/../h/../h/riscv.hpp"
 595              		.file 7 "src/../h/syscall_c.hpp"
 3647              		.align	3
 3650              	DW.ref.__gxx_personality_v0:
 3651 0000 00000000 		.dword	__gxx_personality_v0
 3651      00000000 
 3652              		.ident	"GCC: (Ubuntu 9.4.0-1ubuntu1~20.04) 9.4.0"
 3653              		.section	.note.GNU-stack,"",@progbits
GAS LISTING /tmp/ccSWKyQE.s 			page 16


DEFINED SYMBOLS
                            *ABS*:0000000000000000 kernelThread.cpp
     /tmp/ccSWKyQE.s:9      .text:0000000000000000 _ZN12kernelThread13threadWrapperEv
     /tmp/ccSWKyQE.s:13     .text:0000000000000000 .L0 
     /tmp/ccSWKyQE.s:14     .text:0000000000000000 .L0 
     /tmp/ccSWKyQE.s:15     .text:0000000000000004 .L0 
     /tmp/ccSWKyQE.s:19     .text:0000000000000010 .L0 
     /tmp/ccSWKyQE.s:20     .text:0000000000000010 .L0 
     /tmp/ccSWKyQE.s:21     .text:0000000000000010 .L0 
     /tmp/ccSWKyQE.s:23     .text:0000000000000014 .L0 
     /tmp/ccSWKyQE.s:25     .text:0000000000000014 .L0 
     /tmp/ccSWKyQE.s:26     .text:0000000000000014 .L0 
     /tmp/ccSWKyQE.s:29     .text:000000000000001c .L0 
     /tmp/ccSWKyQE.s:30     .text:000000000000001c .L0 
     /tmp/ccSWKyQE.s:34     .text:000000000000002c .L0 
     /tmp/ccSWKyQE.s:38     .text:0000000000000034 .L0 
     /tmp/ccSWKyQE.s:39     .text:0000000000000034 .L0 
     /tmp/ccSWKyQE.s:45     .text:0000000000000038 .L0 
     /tmp/ccSWKyQE.s:46     .text:0000000000000038 .L0 
     /tmp/ccSWKyQE.s:52     .text:0000000000000040 .L0 
     /tmp/ccSWKyQE.s:53     .text:0000000000000040 .L0 
     /tmp/ccSWKyQE.s:57     .text:000000000000004c .L0 
     /tmp/ccSWKyQE.s:58     .text:0000000000000050 .L0 
     /tmp/ccSWKyQE.s:60     .text:0000000000000054 .L0 
     /tmp/ccSWKyQE.s:61     .text:0000000000000054 .L0 
     /tmp/ccSWKyQE.s:63     .text:0000000000000058 .L0 
     /tmp/ccSWKyQE.s:65     .text:000000000000005c .L0 
     /tmp/ccSWKyQE.s:67     .text:0000000000000060 .L0 
     /tmp/ccSWKyQE.s:73     .text:0000000000000060 _ZN12kernelThread12createThreadEPPS_PFvPvES2_Pm
     /tmp/ccSWKyQE.s:76     .text:0000000000000060 .L0 
     /tmp/ccSWKyQE.s:3650   .data.rel.local.DW.ref.__gxx_personality_v0:0000000000000000 DW.ref.__gxx_personality_v0
     /tmp/ccSWKyQE.s:80     .text:0000000000000060 .L0 
     /tmp/ccSWKyQE.s:81     .text:0000000000000064 .L0 
     /tmp/ccSWKyQE.s:89     .text:0000000000000080 .L0 
     /tmp/ccSWKyQE.s:90     .text:0000000000000080 .L0 
     /tmp/ccSWKyQE.s:91     .text:0000000000000080 .L0 
     /tmp/ccSWKyQE.s:92     .text:0000000000000080 .L0 
     /tmp/ccSWKyQE.s:93     .text:0000000000000080 .L0 
     /tmp/ccSWKyQE.s:94     .text:0000000000000080 .L0 
     /tmp/ccSWKyQE.s:95     .text:0000000000000080 .L0 
     /tmp/ccSWKyQE.s:97     .text:0000000000000084 .L0 
     /tmp/ccSWKyQE.s:103    .text:0000000000000094 .L0 
     /tmp/ccSWKyQE.s:104    .text:0000000000000094 .L0 
     /tmp/ccSWKyQE.s:115    .text:00000000000000a4 .L0 
     /tmp/ccSWKyQE.s:116    .text:00000000000000a4 .L0 
     /tmp/ccSWKyQE.s:118    .text:00000000000000a8 .L0 
     /tmp/ccSWKyQE.s:119    .text:00000000000000a8 .L0 
     /tmp/ccSWKyQE.s:121    .text:00000000000000ac .L0 
     /tmp/ccSWKyQE.s:123    .text:00000000000000b0 .L0 
     /tmp/ccSWKyQE.s:124    .text:00000000000000b0 .L0 
     /tmp/ccSWKyQE.s:127    .text:00000000000000b4 .L0 
     /tmp/ccSWKyQE.s:128    .text:00000000000000b4 .L0 
     /tmp/ccSWKyQE.s:130    .text:00000000000000b8 .L0 
     /tmp/ccSWKyQE.s:131    .text:00000000000000b8 .L0 
     /tmp/ccSWKyQE.s:133    .text:00000000000000bc .L0 
     /tmp/ccSWKyQE.s:134    .text:00000000000000bc .L0 
     /tmp/ccSWKyQE.s:137    .text:00000000000000c4 .L0 
GAS LISTING /tmp/ccSWKyQE.s 			page 17


     /tmp/ccSWKyQE.s:138    .text:00000000000000c4 .L0 
     /tmp/ccSWKyQE.s:141    .text:00000000000000d0 .L0 
     /tmp/ccSWKyQE.s:143    .text:00000000000000d4 .L0 
     /tmp/ccSWKyQE.s:144    .text:00000000000000d4 .L0 
     /tmp/ccSWKyQE.s:146    .text:00000000000000d8 .L0 
     /tmp/ccSWKyQE.s:149    .text:00000000000000e0 .L0 
     /tmp/ccSWKyQE.s:152    .text:00000000000000e4 .L0 
     /tmp/ccSWKyQE.s:157    .text:00000000000000e8 .L0 
     /tmp/ccSWKyQE.s:160    .text:00000000000000e8 .L0 
     /tmp/ccSWKyQE.s:161    .text:00000000000000e8 .L0 
     /tmp/ccSWKyQE.s:162    .text:00000000000000e8 .L0 
     /tmp/ccSWKyQE.s:170    .text:00000000000000f8 .L0 
     /tmp/ccSWKyQE.s:171    .text:00000000000000f8 .L0 
     /tmp/ccSWKyQE.s:175    .text:0000000000000100 .L0 
     /tmp/ccSWKyQE.s:176    .text:0000000000000100 .L0 
     /tmp/ccSWKyQE.s:183    .text:0000000000000108 .L0 
     /tmp/ccSWKyQE.s:185    .text:000000000000010c .L0 
     /tmp/ccSWKyQE.s:187    .text:0000000000000110 .L0 
     /tmp/ccSWKyQE.s:190    .text:0000000000000114 .L0 
     /tmp/ccSWKyQE.s:191    .text:0000000000000118 .L0 
     /tmp/ccSWKyQE.s:192    .text:0000000000000118 .L0 
     /tmp/ccSWKyQE.s:194    .text:000000000000011c .L0 
     /tmp/ccSWKyQE.s:195    .text:000000000000011c .L0 
     /tmp/ccSWKyQE.s:197    .text:0000000000000120 .L0 
     /tmp/ccSWKyQE.s:199    .text:0000000000000124 .L0 
     /tmp/ccSWKyQE.s:202    .text:0000000000000128 .L0 
     /tmp/ccSWKyQE.s:205    .text:000000000000012c .L0 
     /tmp/ccSWKyQE.s:208    .text:0000000000000130 .L0 
     /tmp/ccSWKyQE.s:211    .text:0000000000000134 .L0 
     /tmp/ccSWKyQE.s:215    .text:0000000000000138 .L0 
     /tmp/ccSWKyQE.s:217    .text:0000000000000138 .L0 
     /tmp/ccSWKyQE.s:224    .text:0000000000000144 .L0 
     /tmp/ccSWKyQE.s:232    .text:000000000000015c .L0 
     /tmp/ccSWKyQE.s:258    .text:000000000000015c _ZN12kernelThread14dispatchThreadEv
     /tmp/ccSWKyQE.s:261    .text:000000000000015c .L0 
     /tmp/ccSWKyQE.s:262    .text:000000000000015c .L0 
     /tmp/ccSWKyQE.s:263    .text:0000000000000160 .L0 
     /tmp/ccSWKyQE.s:267    .text:000000000000016c .L0 
     /tmp/ccSWKyQE.s:268    .text:000000000000016c .L0 
     /tmp/ccSWKyQE.s:269    .text:000000000000016c .L0 
     /tmp/ccSWKyQE.s:271    .text:0000000000000170 .L0 
     /tmp/ccSWKyQE.s:273    .text:0000000000000170 .L0 
     /tmp/ccSWKyQE.s:274    .text:0000000000000170 .L0 
     /tmp/ccSWKyQE.s:279    .text:0000000000000178 .L0 
     /tmp/ccSWKyQE.s:280    .text:0000000000000178 .L0 
     /tmp/ccSWKyQE.s:281    .text:0000000000000178 .L0 
     /tmp/ccSWKyQE.s:286    .text:000000000000017c .L0 
     /tmp/ccSWKyQE.s:291    .text:0000000000000180 .L0 
     /tmp/ccSWKyQE.s:292    .text:0000000000000180 .L0 
     /tmp/ccSWKyQE.s:293    .text:0000000000000180 .L0 
     /tmp/ccSWKyQE.s:298    .text:0000000000000184 .L0 
     /tmp/ccSWKyQE.s:301    .text:0000000000000188 .L0 
     /tmp/ccSWKyQE.s:302    .text:0000000000000188 .L0 
     /tmp/ccSWKyQE.s:306    .text:0000000000000194 .L0 
     /tmp/ccSWKyQE.s:308    .text:000000000000019c .L0 
     /tmp/ccSWKyQE.s:309    .text:000000000000019c .L0 
     /tmp/ccSWKyQE.s:313    .text:00000000000001a8 .L0 
GAS LISTING /tmp/ccSWKyQE.s 			page 18


     /tmp/ccSWKyQE.s:314    .text:00000000000001ac .L0 
     /tmp/ccSWKyQE.s:315    .text:00000000000001ac .L0 
     /tmp/ccSWKyQE.s:317    .text:00000000000001b0 .L0 
     /tmp/ccSWKyQE.s:318    .text:00000000000001b0 .L0 
     /tmp/ccSWKyQE.s:320    .text:00000000000001b4 .L0 
     /tmp/ccSWKyQE.s:323    .text:00000000000001b8 .L0 
     /tmp/ccSWKyQE.s:327    .text:00000000000001bc .L0 
     /tmp/ccSWKyQE.s:331    .text:00000000000001bc .L0 
     /tmp/ccSWKyQE.s:332    .text:00000000000001bc .L0 
     /tmp/ccSWKyQE.s:333    .text:00000000000001bc .L0 
     /tmp/ccSWKyQE.s:339    .text:00000000000001c4 .L0 
     /tmp/ccSWKyQE.s:340    .text:00000000000001c4 .L0 
     /tmp/ccSWKyQE.s:344    .text:00000000000001d4 .L0 
     /tmp/ccSWKyQE.s:350    .text:00000000000001d4 _ZN12kernelThread5yieldEv
     /tmp/ccSWKyQE.s:353    .text:00000000000001d4 .L0 
     /tmp/ccSWKyQE.s:354    .text:00000000000001d4 .L0 
     /tmp/ccSWKyQE.s:355    .text:00000000000001d8 .L0 
     /tmp/ccSWKyQE.s:358    .text:00000000000001e0 .L0 
     /tmp/ccSWKyQE.s:359    .text:00000000000001e0 .L0 
     /tmp/ccSWKyQE.s:361    .text:00000000000001e4 .L0 
     /tmp/ccSWKyQE.s:363    .text:00000000000001e4 .L0 
     /tmp/ccSWKyQE.s:364    .text:00000000000001e4 .L0 
     /tmp/ccSWKyQE.s:367    .text:00000000000001ec .L0 
     /tmp/ccSWKyQE.s:368    .text:00000000000001ec .L0 
     /tmp/ccSWKyQE.s:371    .text:00000000000001f4 .L0 
     /tmp/ccSWKyQE.s:372    .text:00000000000001f4 .L0 
     /tmp/ccSWKyQE.s:375    .text:00000000000001fc .L0 
     /tmp/ccSWKyQE.s:376    .text:0000000000000200 .L0 
     /tmp/ccSWKyQE.s:378    .text:0000000000000204 .L0 
     /tmp/ccSWKyQE.s:379    .text:0000000000000204 .L0 
     /tmp/ccSWKyQE.s:381    .text:0000000000000208 .L0 
     /tmp/ccSWKyQE.s:383    .text:000000000000020c .L0 
     /tmp/ccSWKyQE.s:389    .text:000000000000020c _ZN12kernelThread10threadExitEv
     /tmp/ccSWKyQE.s:392    .text:000000000000020c .L0 
     /tmp/ccSWKyQE.s:393    .text:000000000000020c .L0 
     /tmp/ccSWKyQE.s:394    .text:0000000000000210 .L0 
     /tmp/ccSWKyQE.s:397    .text:0000000000000218 .L0 
     /tmp/ccSWKyQE.s:398    .text:0000000000000218 .L0 
     /tmp/ccSWKyQE.s:400    .text:000000000000021c .L0 
     /tmp/ccSWKyQE.s:402    .text:000000000000021c .L0 
     /tmp/ccSWKyQE.s:403    .text:000000000000021c .L0 
     /tmp/ccSWKyQE.s:408    .text:0000000000000224 .L0 
     /tmp/ccSWKyQE.s:409    .text:0000000000000224 .L0 
     /tmp/ccSWKyQE.s:416    .text:0000000000000228 .L0 
     /tmp/ccSWKyQE.s:417    .text:0000000000000228 .L0 
     /tmp/ccSWKyQE.s:418    .text:0000000000000228 .L0 
     /tmp/ccSWKyQE.s:426    .text:0000000000000230 .L0 
     /tmp/ccSWKyQE.s:427    .text:0000000000000230 .L0 
     /tmp/ccSWKyQE.s:428    .text:0000000000000230 .L0 
     /tmp/ccSWKyQE.s:433    .text:0000000000000234 .L0 
     /tmp/ccSWKyQE.s:434    .text:0000000000000234 .L0 
     /tmp/ccSWKyQE.s:437    .text:000000000000023c .L0 
     /tmp/ccSWKyQE.s:438    .text:000000000000023c .L0 
     /tmp/ccSWKyQE.s:440    .text:0000000000000244 .L0 
     /tmp/ccSWKyQE.s:442    .text:0000000000000248 .L0 
     /tmp/ccSWKyQE.s:443    .text:0000000000000248 .L0 
     /tmp/ccSWKyQE.s:445    .text:000000000000024c .L0 
GAS LISTING /tmp/ccSWKyQE.s 			page 19


     /tmp/ccSWKyQE.s:447    .text:0000000000000250 .L0 
     /tmp/ccSWKyQE.s:453    .text:0000000000000250 _ZN12kernelThread12deleteThreadEPS_
     /tmp/ccSWKyQE.s:456    .text:0000000000000250 .L0 
     /tmp/ccSWKyQE.s:458    .text:0000000000000250 .L0 
     /tmp/ccSWKyQE.s:459    .text:0000000000000254 .L0 
     /tmp/ccSWKyQE.s:463    .text:0000000000000260 .L0 
     /tmp/ccSWKyQE.s:464    .text:0000000000000260 .L0 
     /tmp/ccSWKyQE.s:465    .text:0000000000000260 .L0 
     /tmp/ccSWKyQE.s:467    .text:0000000000000264 .L0 
     /tmp/ccSWKyQE.s:470    .text:0000000000000268 .L0 
     /tmp/ccSWKyQE.s:471    .text:0000000000000268 .L0 
     /tmp/ccSWKyQE.s:474    .text:0000000000000270 .L0 
     /tmp/ccSWKyQE.s:475    .text:0000000000000270 .L0 
     /tmp/ccSWKyQE.s:480    .text:0000000000000274 .L0 
     /tmp/ccSWKyQE.s:481    .text:0000000000000274 .L0 
     /tmp/ccSWKyQE.s:483    .text:0000000000000278 .L0 
     /tmp/ccSWKyQE.s:485    .text:000000000000027c .L0 
     /tmp/ccSWKyQE.s:491    .text:0000000000000284 .L0 
     /tmp/ccSWKyQE.s:496    .text:0000000000000290 .L0 
     /tmp/ccSWKyQE.s:497    .text:0000000000000290 .L0 
     /tmp/ccSWKyQE.s:499    .text:0000000000000298 .L0 
     /tmp/ccSWKyQE.s:501    .text:000000000000029c .L0 
     /tmp/ccSWKyQE.s:502    .text:000000000000029c .L0 
     /tmp/ccSWKyQE.s:504    .text:00000000000002a0 .L0 
     /tmp/ccSWKyQE.s:507    .text:00000000000002a4 .L0 
     /tmp/ccSWKyQE.s:509    .text:00000000000002a8 .L0 
     /tmp/ccSWKyQE.s:515    .text:00000000000002a8 _ZN12kernelThread11startThreadEPS_
     /tmp/ccSWKyQE.s:518    .text:00000000000002a8 .L0 
     /tmp/ccSWKyQE.s:520    .text:00000000000002a8 .L0 
     /tmp/ccSWKyQE.s:521    .text:00000000000002ac .L0 
     /tmp/ccSWKyQE.s:523    .text:00000000000002b0 .L0 
     /tmp/ccSWKyQE.s:525    .text:00000000000002b4 .L0 
     /tmp/ccSWKyQE.s:530    .text:00000000000002b4 .L0 
     /tmp/ccSWKyQE.s:531    .text:00000000000002b4 .L0 
     /tmp/ccSWKyQE.s:532    .text:00000000000002b4 .L0 
     /tmp/ccSWKyQE.s:537    .text:00000000000002b8 .L0 
     /tmp/ccSWKyQE.s:542    .text:00000000000002bc .L0 
     /tmp/ccSWKyQE.s:543    .text:00000000000002bc .L0 
     /tmp/ccSWKyQE.s:544    .text:00000000000002bc .L0 
     /tmp/ccSWKyQE.s:551    .text:00000000000002c0 .L0 
     /tmp/ccSWKyQE.s:552    .text:00000000000002c0 .L0 
     /tmp/ccSWKyQE.s:553    .text:00000000000002c0 .L0 
     /tmp/ccSWKyQE.s:559    .text:00000000000002c8 .L0 
     /tmp/ccSWKyQE.s:560    .text:00000000000002c8 .L0 
     /tmp/ccSWKyQE.s:564    .text:00000000000002cc .L0 
     /tmp/ccSWKyQE.s:565    .text:00000000000002d0 .L0 
     /tmp/ccSWKyQE.s:566    .text:00000000000002d0 .L0 
     /tmp/ccSWKyQE.s:567    .text:00000000000002d0 .L0 
     /tmp/ccSWKyQE.s:569    .text:00000000000002d4 .L0 
     /tmp/ccSWKyQE.s:573    .text:00000000000002d8 .L0 
     /tmp/ccSWKyQE.s:575    .text:00000000000002d8 .L0 
     /tmp/ccSWKyQE.s:578    .text:00000000000002e0 .L0 
     /tmp/ccSWKyQE.s:587    .bss:0000000000000000 _ZN12kernelThread7runningE
     /tmp/ccSWKyQE.s:584    .bss:0000000000000000 .LANCHOR0
     /tmp/ccSWKyQE.s:596    .text:00000000000002e0 .L0 
     /tmp/ccSWKyQE.s:30     .text:000000000000001c .L0 
     /tmp/ccSWKyQE.s:138    .text:00000000000000c4 .L0 
GAS LISTING /tmp/ccSWKyQE.s 			page 20


     /tmp/ccSWKyQE.s:274    .text:0000000000000170 .L0 
     /tmp/ccSWKyQE.s:306    .text:0000000000000194 .L0 
     /tmp/ccSWKyQE.s:403    .text:000000000000021c .L0 
     /tmp/ccSWKyQE.s:168    .text:00000000000000f8 .L4
     /tmp/ccSWKyQE.s:173    .text:0000000000000100 .L6
     /tmp/ccSWKyQE.s:178    .text:0000000000000108 .L8
     /tmp/ccSWKyQE.s:125    .text:00000000000000b4 .L5
     /tmp/ccSWKyQE.s:150    .text:00000000000000e4 .L7
     /tmp/ccSWKyQE.s:214    .text:0000000000000138 .L15
     /tmp/ccSWKyQE.s:188    .text:0000000000000114 .L13
     /tmp/ccSWKyQE.s:299    .text:0000000000000188 .L17
     /tmp/ccSWKyQE.s:326    .text:00000000000001bc .L19
     /tmp/ccSWKyQE.s:494    .text:0000000000000290 .L25
     /tmp/ccSWKyQE.s:487    .text:0000000000000284 .L26
     /tmp/ccSWKyQE.s:572    .text:00000000000002d8 .L30
     /tmp/ccSWKyQE.s:562    .text:00000000000002cc .L29
     /tmp/ccSWKyQE.s:106    .text:0000000000000098 .LEHB0
     /tmp/ccSWKyQE.s:74     .text:0000000000000060 .LFB49
     /tmp/ccSWKyQE.s:109    .text:00000000000000a0 .LEHE0
     /tmp/ccSWKyQE.s:163    .text:00000000000000ec .LEHB1
     /tmp/ccSWKyQE.s:166    .text:00000000000000f4 .LEHE1
     /tmp/ccSWKyQE.s:220    .text:0000000000000140 .L12
     /tmp/ccSWKyQE.s:228    .text:0000000000000154 .LEHB2
     /tmp/ccSWKyQE.s:231    .text:000000000000015c .LEHE2
     /tmp/ccSWKyQE.s:2121   .debug_abbrev:0000000000000000 .Ldebug_abbrev0
     /tmp/ccSWKyQE.s:3568   .debug_str:00000000000009b3 .LASF160
     /tmp/ccSWKyQE.s:3590   .debug_str:0000000000000b39 .LASF161
     /tmp/ccSWKyQE.s:3318   .debug_str:00000000000000a5 .LASF162
     /tmp/ccSWKyQE.s:5      .text:0000000000000000 .Ltext0
     /tmp/ccSWKyQE.s:590    .text:00000000000002e0 .Letext0
     /tmp/ccSWKyQE.s:3298   .debug_line:0000000000000000 .Ldebug_line0
     /tmp/ccSWKyQE.s:3398   .debug_str:00000000000003da .LASF0
     /tmp/ccSWKyQE.s:3428   .debug_str:00000000000004a0 .LASF1
     /tmp/ccSWKyQE.s:3506   .debug_str:00000000000007b1 .LASF2
     /tmp/ccSWKyQE.s:3512   .debug_str:00000000000007fe .LASF4
     /tmp/ccSWKyQE.s:3402   .debug_str:00000000000003ed .LASF3
     /tmp/ccSWKyQE.s:3308   .debug_str:0000000000000030 .LASF5
     /tmp/ccSWKyQE.s:3484   .debug_str:0000000000000695 .LASF6
     /tmp/ccSWKyQE.s:3418   .debug_str:0000000000000446 .LASF7
     /tmp/ccSWKyQE.s:3374   .debug_str:00000000000002e2 .LASF8
     /tmp/ccSWKyQE.s:3382   .debug_str:0000000000000340 .LASF9
     /tmp/ccSWKyQE.s:3336   .debug_str:00000000000001b3 .LASF10
     /tmp/ccSWKyQE.s:3364   .debug_str:00000000000002a5 .LASF11
     /tmp/ccSWKyQE.s:3344   .debug_str:00000000000001e5 .LASF12
     /tmp/ccSWKyQE.s:3334   .debug_str:00000000000001a3 .LASF13
     /tmp/ccSWKyQE.s:3546   .debug_str:0000000000000916 .LASF14
     /tmp/ccSWKyQE.s:3360   .debug_str:0000000000000289 .LASF15
     /tmp/ccSWKyQE.s:3536   .debug_str:00000000000008dd .LASF16
     /tmp/ccSWKyQE.s:3442   .debug_str:000000000000053a .LASF17
     /tmp/ccSWKyQE.s:3372   .debug_str:00000000000002d8 .LASF18
     /tmp/ccSWKyQE.s:3532   .debug_str:00000000000008c3 .LASF67
     /tmp/ccSWKyQE.s:3410   .debug_str:000000000000041a .LASF39
     /tmp/ccSWKyQE.s:3358   .debug_str:0000000000000267 .LASF41
     /tmp/ccSWKyQE.s:3544   .debug_str:0000000000000907 .LASF163
     /tmp/ccSWKyQE.s:3638   .debug_str:0000000000000c98 .LASF164
     /tmp/ccSWKyQE.s:3562   .debug_str:0000000000000988 .LASF19
     /tmp/ccSWKyQE.s:3592   .debug_str:0000000000000b4e .LASF165
GAS LISTING /tmp/ccSWKyQE.s 			page 21


     /tmp/ccSWKyQE.s:3540   .debug_str:00000000000008fb .LASF20
     /tmp/ccSWKyQE.s:3458   .debug_str:00000000000005cc .LASF21
     /tmp/ccSWKyQE.s:3452   .debug_str:00000000000005b7 .LASF22
     /tmp/ccSWKyQE.s:3580   .debug_str:0000000000000ae7 .LASF24
     /tmp/ccSWKyQE.s:3424   .debug_str:000000000000048a .LASF23
     /tmp/ccSWKyQE.s:3508   .debug_str:00000000000007bf .LASF25
     /tmp/ccSWKyQE.s:3438   .debug_str:000000000000050a .LASF26
     /tmp/ccSWKyQE.s:3500   .debug_str:0000000000000750 .LASF27
     /tmp/ccSWKyQE.s:3478   .debug_str:0000000000000669 .LASF28
     /tmp/ccSWKyQE.s:3440   .debug_str:0000000000000512 .LASF30
     /tmp/ccSWKyQE.s:3642   .debug_str:0000000000000cd7 .LASF29
     /tmp/ccSWKyQE.s:3444   .debug_str:000000000000053f .LASF31
     /tmp/ccSWKyQE.s:3526   .debug_str:000000000000089e .LASF32
     /tmp/ccSWKyQE.s:3614   .debug_str:0000000000000baa .LASF33
     /tmp/ccSWKyQE.s:3498   .debug_str:0000000000000747 .LASF34
     /tmp/ccSWKyQE.s:3496   .debug_str:0000000000000723 .LASF35
     /tmp/ccSWKyQE.s:3476   .debug_str:000000000000065c .LASF36
     /tmp/ccSWKyQE.s:3552   .debug_str:000000000000093e .LASF166
     /tmp/ccSWKyQE.s:3564   .debug_str:000000000000099b .LASF167
     /tmp/ccSWKyQE.s:3570   .debug_str:0000000000000a77 .LASF37
     /tmp/ccSWKyQE.s:3464   .debug_str:00000000000005dd .LASF38
     /tmp/ccSWKyQE.s:3470   .debug_str:000000000000062f .LASF168
     /tmp/ccSWKyQE.s:3530   .debug_str:00000000000008b8 .LASF40
     /tmp/ccSWKyQE.s:3386   .debug_str:0000000000000360 .LASF42
     /tmp/ccSWKyQE.s:3528   .debug_str:00000000000008a9 .LASF45
     /tmp/ccSWKyQE.s:3312   .debug_str:0000000000000042 .LASF47
     /tmp/ccSWKyQE.s:3560   .debug_str:000000000000097c .LASF43
     /tmp/ccSWKyQE.s:3628   .debug_str:0000000000000c2a .LASF44
     /tmp/ccSWKyQE.s:3432   .debug_str:00000000000004d2 .LASF46
     /tmp/ccSWKyQE.s:3468   .debug_str:0000000000000615 .LASF48
     /tmp/ccSWKyQE.s:3426   .debug_str:0000000000000493 .LASF49
     /tmp/ccSWKyQE.s:3348   .debug_str:0000000000000203 .LASF50
     /tmp/ccSWKyQE.s:3378   .debug_str:000000000000030f .LASF51
     /tmp/ccSWKyQE.s:3396   .debug_str:00000000000003c4 .LASF52
     /tmp/ccSWKyQE.s:3346   .debug_str:00000000000001f5 .LASF75
     /tmp/ccSWKyQE.s:3326   .debug_str:000000000000013f .LASF76
     /tmp/ccSWKyQE.s:3332   .debug_str:0000000000000195 .LASF53
     /tmp/ccSWKyQE.s:3380   .debug_str:000000000000031d .LASF54
     /tmp/ccSWKyQE.s:3538   .debug_str:00000000000008f3 .LASF55
     /tmp/ccSWKyQE.s:3450   .debug_str:000000000000059a .LASF56
     /tmp/ccSWKyQE.s:3320   .debug_str:0000000000000102 .LASF57
     /tmp/ccSWKyQE.s:3596   .debug_str:0000000000000b5a .LASF58
     /tmp/ccSWKyQE.s:3612   .debug_str:0000000000000ba0 .LASF59
     /tmp/ccSWKyQE.s:3430   .debug_str:00000000000004b3 .LASF60
     /tmp/ccSWKyQE.s:3558   .debug_str:0000000000000971 .LASF61
     /tmp/ccSWKyQE.s:3556   .debug_str:0000000000000951 .LASF62
     /tmp/ccSWKyQE.s:3554   .debug_str:0000000000000946 .LASF63
     /tmp/ccSWKyQE.s:3516   .debug_str:0000000000000818 .LASF64
     /tmp/ccSWKyQE.s:3324   .debug_str:0000000000000133 .LASF65
     /tmp/ccSWKyQE.s:3436   .debug_str:00000000000004e9 .LASF66
     /tmp/ccSWKyQE.s:3582   .debug_str:0000000000000b04 .LASF68
     /tmp/ccSWKyQE.s:3630   .debug_str:0000000000000c4d .LASF69
     /tmp/ccSWKyQE.s:3302   .debug_str:0000000000000011 .LASF70
     /tmp/ccSWKyQE.s:3480   .debug_str:0000000000000675 .LASF71
     /tmp/ccSWKyQE.s:3342   .debug_str:00000000000001df .LASF72
     /tmp/ccSWKyQE.s:3466   .debug_str:000000000000060d .LASF73
     /tmp/ccSWKyQE.s:3534   .debug_str:00000000000008d4 .LASF74
GAS LISTING /tmp/ccSWKyQE.s 			page 22


     /tmp/ccSWKyQE.s:3448   .debug_str:000000000000057a .LASF77
     /tmp/ccSWKyQE.s:3598   .debug_str:0000000000000b77 .LASF78
     /tmp/ccSWKyQE.s:3566   .debug_str:00000000000009a3 .LASF79
     /tmp/ccSWKyQE.s:3376   .debug_str:00000000000002f2 .LASF80
     /tmp/ccSWKyQE.s:3492   .debug_str:00000000000006ed .LASF81
     /tmp/ccSWKyQE.s:3422   .debug_str:000000000000046c .LASF82
     /tmp/ccSWKyQE.s:3388   .debug_str:0000000000000380 .LASF83
     /tmp/ccSWKyQE.s:3394   .debug_str:00000000000003ac .LASF84
     /tmp/ccSWKyQE.s:3474   .debug_str:0000000000000645 .LASF85
     /tmp/ccSWKyQE.s:3322   .debug_str:000000000000010b .LASF86
     /tmp/ccSWKyQE.s:3504   .debug_str:0000000000000799 .LASF87
     /tmp/ccSWKyQE.s:3572   .debug_str:0000000000000a84 .LASF88
     /tmp/ccSWKyQE.s:3520   .debug_str:000000000000085d .LASF89
     /tmp/ccSWKyQE.s:3494   .debug_str:00000000000006fe .LASF90
     /tmp/ccSWKyQE.s:3522   .debug_str:0000000000000873 .LASF91
     /tmp/ccSWKyQE.s:3502   .debug_str:0000000000000776 .LASF92
     /tmp/ccSWKyQE.s:3482   .debug_str:000000000000067f .LASF93
     /tmp/ccSWKyQE.s:3316   .debug_str:0000000000000082 .LASF94
     /tmp/ccSWKyQE.s:3548   .debug_str:0000000000000922 .LASF95
     /tmp/ccSWKyQE.s:3518   .debug_str:0000000000000839 .LASF96
     /tmp/ccSWKyQE.s:3602   .debug_str:0000000000000b87 .LASF97
     /tmp/ccSWKyQE.s:3472   .debug_str:0000000000000634 .LASF98
     /tmp/ccSWKyQE.s:3406   .debug_str:0000000000000410 .LASF99
     /tmp/ccSWKyQE.s:3434   .debug_str:00000000000004d8 .LASF100
     /tmp/ccSWKyQE.s:3604   .debug_str:0000000000000b8c .LASF101
     /tmp/ccSWKyQE.s:3404   .debug_str:00000000000003ff .LASF102
     /tmp/ccSWKyQE.s:3408   .debug_str:0000000000000415 .LASF103
     /tmp/ccSWKyQE.s:3328   .debug_str:0000000000000171 .LASF104
     /tmp/ccSWKyQE.s:3606   .debug_str:0000000000000b91 .LASF105
     /tmp/ccSWKyQE.s:3352   .debug_str:000000000000023f .LASF106
     /tmp/ccSWKyQE.s:3460   .debug_str:00000000000005d1 .LASF107
     /tmp/ccSWKyQE.s:3416   .debug_str:0000000000000435 .LASF108
     /tmp/ccSWKyQE.s:3608   .debug_str:0000000000000b96 .LASF109
     /tmp/ccSWKyQE.s:3640   .debug_str:0000000000000cc6 .LASF110
     /tmp/ccSWKyQE.s:3412   .debug_str:000000000000042b .LASF111
     /tmp/ccSWKyQE.s:3354   .debug_str:0000000000000250 .LASF112
     /tmp/ccSWKyQE.s:3610   .debug_str:0000000000000b9b .LASF113
     /tmp/ccSWKyQE.s:3578   .debug_str:0000000000000ad6 .LASF114
     /tmp/ccSWKyQE.s:3414   .debug_str:0000000000000430 .LASF115
     /tmp/ccSWKyQE.s:3300   .debug_str:0000000000000000 .LASF116
     /tmp/ccSWKyQE.s:3392   .debug_str:000000000000039d .LASF117
     /tmp/ccSWKyQE.s:3624   .debug_str:0000000000000bff .LASF118
     /tmp/ccSWKyQE.s:3490   .debug_str:00000000000006e6 .LASF119
     /tmp/ccSWKyQE.s:3330   .debug_str:0000000000000182 .LASF120
     /tmp/ccSWKyQE.s:3462   .debug_str:00000000000005d6 .LASF121
     /tmp/ccSWKyQE.s:3420   .debug_str:0000000000000459 .LASF122
     /tmp/ccSWKyQE.s:3600   .debug_str:0000000000000b7d .LASF123
     /tmp/ccSWKyQE.s:3622   .debug_str:0000000000000be9 .LASF124
     /tmp/ccSWKyQE.s:3338   .debug_str:00000000000001c2 .LASF125
     /tmp/ccSWKyQE.s:3446   .debug_str:0000000000000564 .LASF126
     /tmp/ccSWKyQE.s:3454   .debug_str:00000000000005bc .LASF127
     /tmp/ccSWKyQE.s:3574   .debug_str:0000000000000aac .LASF128
     /tmp/ccSWKyQE.s:3456   .debug_str:00000000000005c4 .LASF129
     /tmp/ccSWKyQE.s:3368   .debug_str:00000000000002bf .LASF130
     /tmp/ccSWKyQE.s:3588   .debug_str:0000000000000b30 .LASF131
     /tmp/ccSWKyQE.s:3584   .debug_str:0000000000000b0c .LASF132
     /tmp/ccSWKyQE.s:3356   .debug_str:0000000000000261 .LASF133
GAS LISTING /tmp/ccSWKyQE.s 			page 23


     /tmp/ccSWKyQE.s:3390   .debug_str:000000000000038b .LASF134
     /tmp/ccSWKyQE.s:3400   .debug_str:00000000000003e7 .LASF135
     /tmp/ccSWKyQE.s:3384   .debug_str:000000000000034e .LASF136
     /tmp/ccSWKyQE.s:3542   .debug_str:0000000000000900 .LASF137
     /tmp/ccSWKyQE.s:3514   .debug_str:0000000000000805 .LASF138
     /tmp/ccSWKyQE.s:3616   .debug_str:0000000000000bd1 .LASF139
     /tmp/ccSWKyQE.s:3340   .debug_str:00000000000001cc .LASF140
     /tmp/ccSWKyQE.s:3310   .debug_str:0000000000000037 .LASF141
     /tmp/ccSWKyQE.s:3510   .debug_str:00000000000007e6 .LASF142
     /tmp/ccSWKyQE.s:3366   .debug_str:00000000000002b4 .LASF143
     /tmp/ccSWKyQE.s:3632   .debug_str:0000000000000c53 .LASF144
     /tmp/ccSWKyQE.s:3586   .debug_str:0000000000000b21 .LASF145
     /tmp/ccSWKyQE.s:3314   .debug_str:0000000000000066 .LASF146
     /tmp/ccSWKyQE.s:3576   .debug_str:0000000000000ac0 .LASF169
     /tmp/ccSWKyQE.s:3488   .debug_str:00000000000006c3 .LASF170
     /tmp/ccSWKyQE.s:3486   .debug_str:00000000000006a8 .LASF171
     /tmp/ccSWKyQE.s:516    .text:00000000000002a8 .LFB55
     /tmp/ccSWKyQE.s:579    .text:00000000000002e0 .LFE55
     /tmp/ccSWKyQE.s:3620   .debug_str:0000000000000be2 .LASF147
     /tmp/ccSWKyQE.s:2944   .debug_loc:0000000000000000 .LLST23
     /tmp/ccSWKyQE.s:528    .text:00000000000002b4 .LBB52
     /tmp/ccSWKyQE.s:535    .text:00000000000002b8 .LBE52
     /tmp/ccSWKyQE.s:2969   .debug_loc:0000000000000062 .LLST24
     /tmp/ccSWKyQE.s:540    .text:00000000000002bc .LBB54
     /tmp/ccSWKyQE.s:547    .text:00000000000002c0 .LBE54
     /tmp/ccSWKyQE.s:2976   .debug_loc:0000000000000085 .LLST25
     /tmp/ccSWKyQE.s:2984   .debug_loc:00000000000000a9 .LLST26
     /tmp/ccSWKyQE.s:549    .text:00000000000002c0 .LBB56
     /tmp/ccSWKyQE.s:557    .text:00000000000002c8 .LBE56
     /tmp/ccSWKyQE.s:2991   .debug_loc:00000000000000cc .LLST27
     /tmp/ccSWKyQE.s:2999   .debug_loc:00000000000000f0 .LLST28
     /tmp/ccSWKyQE.s:454    .text:0000000000000250 .LFB54
     /tmp/ccSWKyQE.s:510    .text:00000000000002a8 .LFE54
     /tmp/ccSWKyQE.s:3006   .debug_loc:0000000000000113 .LLST21
     /tmp/ccSWKyQE.s:477    .text:0000000000000274 .LBB50
     /tmp/ccSWKyQE.s:489    .text:0000000000000284 .LBE50
     /tmp/ccSWKyQE.s:3024   .debug_loc:000000000000015f .LLST22
     /tmp/ccSWKyQE.s:486    .text:0000000000000284 .LVL42
     /tmp/ccSWKyQE.s:472    .text:0000000000000270 .LVL40
     /tmp/ccSWKyQE.s:493    .text:0000000000000290 .LVL43
     /tmp/ccSWKyQE.s:390    .text:000000000000020c .LFB53
     /tmp/ccSWKyQE.s:448    .text:0000000000000250 .LFE53
     /tmp/ccSWKyQE.s:405    .text:0000000000000224 .LBB44
     /tmp/ccSWKyQE.s:412    .text:0000000000000228 .LBE44
     /tmp/ccSWKyQE.s:3031   .debug_loc:0000000000000182 .LLST15
     /tmp/ccSWKyQE.s:3039   .debug_loc:00000000000001a6 .LLST16
     /tmp/ccSWKyQE.s:414    .text:0000000000000228 .LBB46
     /tmp/ccSWKyQE.s:422    .text:0000000000000230 .LBE46
     /tmp/ccSWKyQE.s:3046   .debug_loc:00000000000001c9 .LLST17
     /tmp/ccSWKyQE.s:3054   .debug_loc:00000000000001ed .LLST18
     /tmp/ccSWKyQE.s:424    .text:0000000000000230 .LBB48
     /tmp/ccSWKyQE.s:431    .text:0000000000000234 .LBE48
     /tmp/ccSWKyQE.s:3061   .debug_loc:0000000000000210 .LLST19
     /tmp/ccSWKyQE.s:3069   .debug_loc:0000000000000234 .LLST20
     /tmp/ccSWKyQE.s:435    .text:000000000000023c .LVL38
     /tmp/ccSWKyQE.s:259    .text:000000000000015c .LFB52
     /tmp/ccSWKyQE.s:345    .text:00000000000001d4 .LFE52
GAS LISTING /tmp/ccSWKyQE.s 			page 24


     /tmp/ccSWKyQE.s:3618   .debug_str:0000000000000bd8 .LASF148
     /tmp/ccSWKyQE.s:3076   .debug_loc:0000000000000257 .LLST10
     /tmp/ccSWKyQE.s:277    .text:0000000000000178 .LBB38
     /tmp/ccSWKyQE.s:284    .text:000000000000017c .LBE38
     /tmp/ccSWKyQE.s:3087   .debug_loc:000000000000028d .LLST11
     /tmp/ccSWKyQE.s:289    .text:0000000000000180 .LBB40
     /tmp/ccSWKyQE.s:296    .text:0000000000000184 .LBE40
     /tmp/ccSWKyQE.s:3094   .debug_loc:00000000000002b0 .LLST12
     /tmp/ccSWKyQE.s:329    .text:00000000000001bc .LBB42
     /tmp/ccSWKyQE.s:337    .text:00000000000001c4 .LBE42
     /tmp/ccSWKyQE.s:3101   .debug_loc:00000000000002d3 .LLST13
     /tmp/ccSWKyQE.s:3109   .debug_loc:00000000000002f7 .LLST14
     /tmp/ccSWKyQE.s:303    .text:0000000000000190 .LVL25
     /tmp/ccSWKyQE.s:311    .text:00000000000001a8 .LVL26
     /tmp/ccSWKyQE.s:342    .text:00000000000001d0 .LVL30
     /tmp/ccSWKyQE.s:351    .text:00000000000001d4 .LFB51
     /tmp/ccSWKyQE.s:384    .text:000000000000020c .LFE51
     /tmp/ccSWKyQE.s:365    .text:00000000000001ec .LVL31
     /tmp/ccSWKyQE.s:369    .text:00000000000001f4 .LVL32
     /tmp/ccSWKyQE.s:373    .text:00000000000001fc .LVL33
     /tmp/ccSWKyQE.s:10     .text:0000000000000000 .LFB50
     /tmp/ccSWKyQE.s:68     .text:0000000000000060 .LFE50
     /tmp/ccSWKyQE.s:41     .text:0000000000000038 .LBB28
     /tmp/ccSWKyQE.s:50     .text:0000000000000040 .LBE28
     /tmp/ccSWKyQE.s:3116   .debug_loc:000000000000031a .LLST0
     /tmp/ccSWKyQE.s:3124   .debug_loc:000000000000033e .LLST1
     /tmp/ccSWKyQE.s:27     .text:000000000000001c .LVL0
     /tmp/ccSWKyQE.s:55     .text:000000000000004c .LVL4
     /tmp/ccSWKyQE.s:233    .text:000000000000015c .LFE49
     /tmp/ccSWKyQE.s:3131   .debug_loc:0000000000000361 .LLST2
     /tmp/ccSWKyQE.s:3153   .debug_loc:00000000000003c0 .LLST3
     /tmp/ccSWKyQE.s:3550   .debug_str:0000000000000939 .LASF149
     /tmp/ccSWKyQE.s:3182   .debug_loc:0000000000000435 .LLST4
     /tmp/ccSWKyQE.s:3204   .debug_loc:0000000000000494 .LLST5
     /tmp/ccSWKyQE.s:112    .text:00000000000000a4 .LBB34
     /tmp/ccSWKyQE.s:3290   .debug_ranges:0000000000000000 .Ldebug_ranges0
     /tmp/ccSWKyQE.s:3226   .debug_loc:00000000000004f3 .LLST6
     /tmp/ccSWKyQE.s:3237   .debug_loc:0000000000000529 .LLST7
     /tmp/ccSWKyQE.s:3248   .debug_loc:000000000000055f .LLST8
     /tmp/ccSWKyQE.s:3266   .debug_loc:00000000000005ab .LLST9
     /tmp/ccSWKyQE.s:165    .text:00000000000000f4 .LVL10
     /tmp/ccSWKyQE.s:108    .text:00000000000000a0 .LVL7
     /tmp/ccSWKyQE.s:226    .text:0000000000000150 .LVL19
     /tmp/ccSWKyQE.s:230    .text:000000000000015c .LVL20
     /tmp/ccSWKyQE.s:3370   .debug_str:00000000000002d3 .LASF150
     /tmp/ccSWKyQE.s:3634   .debug_str:0000000000000c6b .LASF152
     /tmp/ccSWKyQE.s:3306   .debug_str:0000000000000026 .LASF151
     /tmp/ccSWKyQE.s:3524   .debug_str:0000000000000888 .LASF153
     /tmp/ccSWKyQE.s:3594   .debug_str:0000000000000b53 .LASF154
     /tmp/ccSWKyQE.s:3304   .debug_str:0000000000000016 .LASF156
     /tmp/ccSWKyQE.s:3362   .debug_str:000000000000029f .LASF155
     /tmp/ccSWKyQE.s:3636   .debug_str:0000000000000c8b .LASF157
     /tmp/ccSWKyQE.s:3626   .debug_str:0000000000000c1b .LASF158
     /tmp/ccSWKyQE.s:3350   .debug_str:0000000000000227 .LASF159
     /tmp/ccSWKyQE.s:519    .text:00000000000002a8 .LVL45
     /tmp/ccSWKyQE.s:561    .text:00000000000002cc .LVL51
     /tmp/ccSWKyQE.s:571    .text:00000000000002d8 .LVL52
GAS LISTING /tmp/ccSWKyQE.s 			page 25


     /tmp/ccSWKyQE.s:576    .text:00000000000002dc .LVL53
     /tmp/ccSWKyQE.s:527    .text:00000000000002b4 .LVL46
     /tmp/ccSWKyQE.s:533    .text:00000000000002b8 .LVL47
     /tmp/ccSWKyQE.s:539    .text:00000000000002bc .LVL48
     /tmp/ccSWKyQE.s:545    .text:00000000000002c0 .LVL49
     /tmp/ccSWKyQE.s:555    .text:00000000000002c8 .LVL50
     /tmp/ccSWKyQE.s:457    .text:0000000000000250 .LVL39
     /tmp/ccSWKyQE.s:505    .text:00000000000002a0 .LVL44
     /tmp/ccSWKyQE.s:476    .text:0000000000000274 .LVL41
     /tmp/ccSWKyQE.s:404    .text:0000000000000224 .LVL34
     /tmp/ccSWKyQE.s:410    .text:0000000000000228 .LVL35
     /tmp/ccSWKyQE.s:420    .text:0000000000000230 .LVL36
     /tmp/ccSWKyQE.s:429    .text:0000000000000234 .LVL37
     /tmp/ccSWKyQE.s:275    .text:0000000000000178 .LVL21
     /tmp/ccSWKyQE.s:321    .text:00000000000001b4 .LVL27
     /tmp/ccSWKyQE.s:325    .text:00000000000001bc .LVL28
     /tmp/ccSWKyQE.s:282    .text:000000000000017c .LVL22
     /tmp/ccSWKyQE.s:288    .text:0000000000000180 .LVL23
     /tmp/ccSWKyQE.s:294    .text:0000000000000184 .LVL24
     /tmp/ccSWKyQE.s:335    .text:00000000000001c4 .LVL29
     /tmp/ccSWKyQE.s:40     .text:0000000000000038 .LVL2
     /tmp/ccSWKyQE.s:48     .text:0000000000000040 .LVL3
     /tmp/ccSWKyQE.s:79     .text:0000000000000060 .LVL5
     /tmp/ccSWKyQE.s:105    .text:0000000000000098 .LVL6
     /tmp/ccSWKyQE.s:203    .text:0000000000000128 .LVL13
     /tmp/ccSWKyQE.s:213    .text:0000000000000138 .LVL16
     /tmp/ccSWKyQE.s:200    .text:0000000000000124 .LVL12
     /tmp/ccSWKyQE.s:222    .text:0000000000000144 .LVL18
     /tmp/ccSWKyQE.s:209    .text:0000000000000130 .LVL15
     /tmp/ccSWKyQE.s:206    .text:000000000000012c .LVL14
     /tmp/ccSWKyQE.s:111    .text:00000000000000a4 .LVL8
     /tmp/ccSWKyQE.s:179    .text:0000000000000108 .LVL11
     /tmp/ccSWKyQE.s:219    .text:0000000000000140 .LVL17
     /tmp/ccSWKyQE.s:597    .debug_info:0000000000000000 .Ldebug_info0
     /tmp/ccSWKyQE.s:156    .text:00000000000000e8 .LBE34
     /tmp/ccSWKyQE.s:158    .text:00000000000000e8 .LBB37
     /tmp/ccSWKyQE.s:181    .text:0000000000000108 .LBE37
     /tmp/ccSWKyQE.s:236    .gcc_except_table:0000000000000000 .LLSDA49

UNDEFINED SYMBOLS
_ZN5Riscv10popSppSpieEv
_ZN5Riscv21ecallWithoutArgumentsEm
_Znwm
_ZN9Scheduler14putInSchedulerEP12kernelThread
_ZdlPv
_Unwind_Resume
__gxx_personality_v0
_ZN9Scheduler16getFromSchedulerEv
_ZN12kernelThread13contextSwitchEPNS_7ContextES1_
_ZN5Riscv16pushAllRegistersEv
_ZN5Riscv15popAllRegistersEv
