GAS LISTING /tmp/ccDmR6lH.s 			page 1


   1              		.file	"kernelSemaphore.cpp"
   2              		.option pic
   3              		.option norelax
   4              		.text
   5              	.Ltext0:
   6              		.align	2
   7              		.globl	_ZN15kernelSemaphore15createSemaphoreEPPS_j
   9              	_ZN15kernelSemaphore15createSemaphoreEPPS_j:
  10              	.LFB49:
  11              		.file 1 "src/kernelSemaphore.cpp"
   1:src/kernelSemaphore.cpp **** #include "../h/kernelSemaphore.hpp"
   2:src/kernelSemaphore.cpp **** 
   3:src/kernelSemaphore.cpp **** int kernelSemaphore::createSemaphore(kernelSemaphore** handle, unsigned init){
  12              		.loc 1 3 78
  13              		.cfi_startproc
  14              	.LVL0:
  15 0000 130101FE 		addi	sp,sp,-32
  16              		.cfi_def_cfa_offset 32
  17 0004 233C1100 		sd	ra,24(sp)
  18 0008 23388100 		sd	s0,16(sp)
  19 000c 23349100 		sd	s1,8(sp)
  20 0010 23302101 		sd	s2,0(sp)
  21              		.cfi_offset 1, -8
  22              		.cfi_offset 8, -16
  23              		.cfi_offset 9, -24
  24              		.cfi_offset 18, -32
  25 0014 13040102 		addi	s0,sp,32
  26              		.cfi_def_cfa 8, 0
  27 0018 93040500 		mv	s1,a0
  28 001c 13890500 		mv	s2,a1
   4:src/kernelSemaphore.cpp ****     *handle = new kernelSemaphore(init);
  29              		.loc 1 4 5
  30              		.loc 1 4 39 is_stmt 0
  31 0020 13058001 		li	a0,24
  32              	.LVL1:
  33 0024 97000000 		call	_Znwm@plt
  33      E7800000 
  34              	.LVL2:
  35              	.LBB33:
  36              	.LBB34:
  37              	.LBB35:
  38              	.LBB36:
  39              		.file 2 "src/../h/list.hpp"
   1:src/../h/list.hpp **** #ifndef LIST_HPP
   2:src/../h/list.hpp **** #define LIST_HPP
   3:src/../h/list.hpp **** 
   4:src/../h/list.hpp **** #include "memoryAllocator.hpp"
   5:src/../h/list.hpp **** 
   6:src/../h/list.hpp **** template<typename T>
   7:src/../h/list.hpp **** class List{
   8:src/../h/list.hpp **** 
   9:src/../h/list.hpp **** private:
  10:src/../h/list.hpp **** 
  11:src/../h/list.hpp ****     struct Elem{
  12:src/../h/list.hpp ****         T* data;
  13:src/../h/list.hpp ****         Elem* next;
  14:src/../h/list.hpp **** 
GAS LISTING /tmp/ccDmR6lH.s 			page 2


  15:src/../h/list.hpp ****         Elem(T* data, Elem* next){
  16:src/../h/list.hpp ****             this->data = data;
  17:src/../h/list.hpp ****             this->next = next;
  18:src/../h/list.hpp ****         }
  19:src/../h/list.hpp ****     };
  20:src/../h/list.hpp **** 
  21:src/../h/list.hpp ****     Elem* head;
  22:src/../h/list.hpp ****     Elem* tail;
  23:src/../h/list.hpp **** 
  24:src/../h/list.hpp **** public:
  25:src/../h/list.hpp **** 
  26:src/../h/list.hpp ****     List(){
  27:src/../h/list.hpp ****         head = nullptr;
  40              		.loc 2 27 9
  41 002c 23340500 		sd	zero,8(a0)
  28:src/../h/list.hpp ****         tail = nullptr;
  42              		.loc 2 28 9
  43 0030 23380500 		sd	zero,16(a0)
  44              	.LVL3:
  45              	.LBE36:
  46              	.LBE35:
  47              		.file 3 "src/../h/kernelSemaphore.hpp"
   1:src/../h/kernelSemaphore.hpp **** #ifndef KERNELSEMAPHORE_HPP
   2:src/../h/kernelSemaphore.hpp **** #define KERNELSEMAPHORE_HPP
   3:src/../h/kernelSemaphore.hpp **** 
   4:src/../h/kernelSemaphore.hpp **** #include "list.hpp"
   5:src/../h/kernelSemaphore.hpp **** #include "kernelThread.hpp"
   6:src/../h/kernelSemaphore.hpp **** #include "scheduler.hpp"
   7:src/../h/kernelSemaphore.hpp **** 
   8:src/../h/kernelSemaphore.hpp **** class kernelSemaphore{
   9:src/../h/kernelSemaphore.hpp **** 
  10:src/../h/kernelSemaphore.hpp **** private:
  11:src/../h/kernelSemaphore.hpp **** 
  12:src/../h/kernelSemaphore.hpp ****     kernelSemaphore(unsigned init = 1) {
  13:src/../h/kernelSemaphore.hpp ****         semValue = (int)init;
  48              		.loc 3 13 9 is_stmt 1
  49              		.loc 3 13 18 is_stmt 0
  50 0034 23202501 		sw	s2,0(a0)
  51              	.LVL4:
  52              	.LBE34:
  53              	.LBE33:
  54              		.loc 1 4 13
  55 0038 23B0A400 		sd	a0,0(s1)
   5:src/kernelSemaphore.cpp ****     if(handle == nullptr) return -1;
  56              		.loc 1 5 5 is_stmt 1
  57 003c 63800402 		beqz	s1,.L5
   6:src/kernelSemaphore.cpp ****     else return 0;
  58              		.loc 1 6 17 is_stmt 0
  59 0040 13050000 		li	a0,0
  60              	.L2:
   7:src/kernelSemaphore.cpp **** };
  61              		.loc 1 7 1
  62 0044 83308101 		ld	ra,24(sp)
  63              		.cfi_remember_state
  64              		.cfi_restore 1
  65 0048 03340101 		ld	s0,16(sp)
  66              		.cfi_restore 8
GAS LISTING /tmp/ccDmR6lH.s 			page 3


  67              		.cfi_def_cfa 2, 32
  68 004c 83348100 		ld	s1,8(sp)
  69              		.cfi_restore 9
  70              	.LVL5:
  71 0050 03390100 		ld	s2,0(sp)
  72              		.cfi_restore 18
  73 0054 13010102 		addi	sp,sp,32
  74              		.cfi_def_cfa_offset 0
  75 0058 67800000 		jr	ra
  76              	.LVL6:
  77              	.L5:
  78              		.cfi_restore_state
   5:src/kernelSemaphore.cpp ****     if(handle == nullptr) return -1;
  79              		.loc 1 5 35
  80 005c 1305F0FF 		li	a0,-1
  81 0060 6FF05FFE 		j	.L2
  82              		.cfi_endproc
  83              	.LFE49:
  85              		.align	2
  86              		.globl	_ZN15kernelSemaphore15deleteSemaphoreEPS_
  88              	_ZN15kernelSemaphore15deleteSemaphoreEPS_:
  89              	.LFB50:
   8:src/kernelSemaphore.cpp **** 
   9:src/kernelSemaphore.cpp **** int kernelSemaphore::deleteSemaphore(kernelSemaphore *handle){
  90              		.loc 1 9 62 is_stmt 1
  91              		.cfi_startproc
  92              	.LVL7:
  93 0064 130101FD 		addi	sp,sp,-48
  94              		.cfi_def_cfa_offset 48
  95 0068 23341102 		sd	ra,40(sp)
  96 006c 23308102 		sd	s0,32(sp)
  97 0070 233C9100 		sd	s1,24(sp)
  98 0074 23382101 		sd	s2,16(sp)
  99 0078 23343101 		sd	s3,8(sp)
 100              		.cfi_offset 1, -8
 101              		.cfi_offset 8, -16
 102              		.cfi_offset 9, -24
 103              		.cfi_offset 18, -32
 104              		.cfi_offset 19, -40
 105 007c 13040103 		addi	s0,sp,48
 106              		.cfi_def_cfa 8, 0
 107 0080 93040500 		mv	s1,a0
  10:src/kernelSemaphore.cpp ****     if(handle == nullptr){
 108              		.loc 1 10 5
 109 0084 63140506 		bnez	a0,.L12
  11:src/kernelSemaphore.cpp ****         return -1;
 110              		.loc 1 11 17 is_stmt 0
 111 0088 1305F0FF 		li	a0,-1
 112              	.LVL8:
 113 008c 6F00C00B 		j	.L7
 114              	.LVL9:
 115              	.L17:
 116              	.LBB48:
 117              	.LBB49:
 118              	.LBB50:
  29:src/../h/list.hpp ****     }
  30:src/../h/list.hpp **** 
GAS LISTING /tmp/ccDmR6lH.s 			page 4


  31:src/../h/list.hpp ****     void addFirst(T* data){
  32:src/../h/list.hpp ****         Elem *newElem = new Elem(data, head);
  33:src/../h/list.hpp ****         head = newElem;
  34:src/../h/list.hpp ****         if(tail == nullptr){
  35:src/../h/list.hpp ****             tail = newElem;
  36:src/../h/list.hpp ****         }
  37:src/../h/list.hpp ****     }
  38:src/../h/list.hpp **** 
  39:src/../h/list.hpp ****     void addLast(T* data){
  40:src/../h/list.hpp ****         //Elem *newElem = new Elem(data, nullptr);
  41:src/../h/list.hpp ****         size_t size = sizeof(Elem)/MEM_BLOCK_SIZE;
  42:src/../h/list.hpp ****         if(sizeof(Elem)%MEM_BLOCK_SIZE != 0){
  43:src/../h/list.hpp ****             size++;
  44:src/../h/list.hpp ****         }
  45:src/../h/list.hpp ****         Elem *newElem = (Elem*)(MemoryAllocator::getInstance().mem_alloc(size));
  46:src/../h/list.hpp ****         newElem->next = nullptr;
  47:src/../h/list.hpp ****         newElem->data = data;
  48:src/../h/list.hpp ****         if(tail == nullptr){
  49:src/../h/list.hpp ****             tail = newElem;
  50:src/../h/list.hpp ****             head = newElem;
  51:src/../h/list.hpp ****         }else{
  52:src/../h/list.hpp ****             tail->next = newElem;
  53:src/../h/list.hpp ****             tail = newElem;
  54:src/../h/list.hpp ****         }
  55:src/../h/list.hpp ****     }
  56:src/../h/list.hpp **** 
  57:src/../h/list.hpp ****     T* removeFirst(){
  58:src/../h/list.hpp ****         if(head == nullptr) return nullptr;
  59:src/../h/list.hpp ****         Elem *elem = head;
  60:src/../h/list.hpp ****         head = head->next;
  61:src/../h/list.hpp ****         if(head == nullptr){
  62:src/../h/list.hpp ****             tail = nullptr;
 119              		.loc 2 62 13
 120 0090 23B80400 		sd	zero,16(s1)
 121 0094 6F004007 		j	.L10
 122              	.LVL10:
 123              	.L18:
 124              	.LBB51:
 125              	.LBB52:
 126              		.file 4 "src/../h/memoryAllocator.hpp"
   1:src/../h/memoryAllocator.hpp **** #ifndef MEMORYALLOCATOR
   2:src/../h/memoryAllocator.hpp **** #define MEMORYALLOCATOR
   3:src/../h/memoryAllocator.hpp **** 
   4:src/../h/memoryAllocator.hpp **** #include "../lib/hw.h"
   5:src/../h/memoryAllocator.hpp **** 
   6:src/../h/memoryAllocator.hpp **** class MemoryAllocator{
   7:src/../h/memoryAllocator.hpp **** 
   8:src/../h/memoryAllocator.hpp **** private:
   9:src/../h/memoryAllocator.hpp **** 
  10:src/../h/memoryAllocator.hpp ****     MemoryAllocator();
  11:src/../h/memoryAllocator.hpp ****     ~MemoryAllocator()=default;
  12:src/../h/memoryAllocator.hpp **** 
  13:src/../h/memoryAllocator.hpp ****     struct FreeMemoryBlock{
  14:src/../h/memoryAllocator.hpp ****         FreeMemoryBlock *next;
  15:src/../h/memoryAllocator.hpp ****         FreeMemoryBlock *prev;
  16:src/../h/memoryAllocator.hpp ****         size_t size;
  17:src/../h/memoryAllocator.hpp ****         bool free = true;
GAS LISTING /tmp/ccDmR6lH.s 			page 5


  18:src/../h/memoryAllocator.hpp ****     };
  19:src/../h/memoryAllocator.hpp **** 
  20:src/../h/memoryAllocator.hpp ****     FreeMemoryBlock *freeMemoryHead;
  21:src/../h/memoryAllocator.hpp **** 
  22:src/../h/memoryAllocator.hpp ****     //static MemoryAllocator *instance;
  23:src/../h/memoryAllocator.hpp **** 
  24:src/../h/memoryAllocator.hpp ****     int tryToJoin(FreeMemoryBlock* freeBlock);
  25:src/../h/memoryAllocator.hpp **** 
  26:src/../h/memoryAllocator.hpp **** public:
  27:src/../h/memoryAllocator.hpp **** 
  28:src/../h/memoryAllocator.hpp ****     MemoryAllocator(const MemoryAllocator&) = delete;
  29:src/../h/memoryAllocator.hpp ****     MemoryAllocator& operator=(const MemoryAllocator&) = delete;
  30:src/../h/memoryAllocator.hpp **** 
  31:src/../h/memoryAllocator.hpp ****     static MemoryAllocator& getInstance(){
  32:src/../h/memoryAllocator.hpp ****         static MemoryAllocator instance;
 127              		.loc 4 32 32
 128 0098 17050000 		lla	a0,_ZZN15MemoryAllocator11getInstanceEvE8instance
 128      13050500 
 129 00a0 97000000 		call	_ZN15MemoryAllocatorC1Ev@plt
 129      E7800000 
 130              	.LVL11:
 131 00a8 93071000 		li	a5,1
 132 00ac 17070000 		sb	a5,_ZGVZN15MemoryAllocator11getInstanceEvE8instance,a4
 132      2300F700 
 133              	.L11:
  33:src/../h/memoryAllocator.hpp ****         return instance;
 134              		.loc 4 33 9 is_stmt 1
 135              	.LBE52:
 136              	.LBE51:
  63:src/../h/list.hpp ****         }
  64:src/../h/list.hpp ****         T *ret = elem->data;
  65:src/../h/list.hpp ****         //delete elem;
  66:src/../h/list.hpp ****         MemoryAllocator::getInstance().mem_free(elem);
 137              		.loc 2 66 9 is_stmt 0
 138 00b4 93050900 		mv	a1,s2
 139 00b8 17050000 		lla	a0,_ZZN15MemoryAllocator11getInstanceEvE8instance
 139      13050500 
 140 00c0 97000000 		call	_ZN15MemoryAllocator8mem_freeEPv@plt
 140      E7800000 
 141              	.LVL12:
 142              	.L9:
 143              	.LBE50:
 144              	.LBE49:
  12:src/kernelSemaphore.cpp ****     }
  13:src/kernelSemaphore.cpp **** 
  14:src/kernelSemaphore.cpp ****     while(handle->semValue < 0){
  15:src/kernelSemaphore.cpp ****         kernelThread *blocked = handle->blockedThreads.removeFirst();
  16:src/kernelSemaphore.cpp ****         //blocked->startThread(blocked);
  17:src/kernelSemaphore.cpp ****         blocked->setBlocked(false);
 145              		.loc 1 17 9 is_stmt 1
 146              	.LBB56:
 147              	.LBB57:
 148              		.file 5 "src/../h/kernelThread.hpp"
   1:src/../h/kernelThread.hpp **** #ifndef KERNEL_THREAD_HPP
   2:src/../h/kernelThread.hpp **** #define KERNEL_THREAD_HPP
   3:src/../h/kernelThread.hpp **** 
   4:src/../h/kernelThread.hpp **** #include "../lib/mem.h"
GAS LISTING /tmp/ccDmR6lH.s 			page 6


   5:src/../h/kernelThread.hpp **** //#include "riscv.hpp"
   6:src/../h/kernelThread.hpp **** #include "scheduler.hpp"
   7:src/../h/kernelThread.hpp **** #include "syscall_c.hpp"
   8:src/../h/kernelThread.hpp **** 
   9:src/../h/kernelThread.hpp **** class kernelThread{
  10:src/../h/kernelThread.hpp **** 
  11:src/../h/kernelThread.hpp **** public:
  12:src/../h/kernelThread.hpp ****     static kernelThread *running;   //current running
  13:src/../h/kernelThread.hpp **** 
  14:src/../h/kernelThread.hpp ****     using Body = void(*)(void *);     //possible void(*)(void *)
  15:src/../h/kernelThread.hpp **** 
  16:src/../h/kernelThread.hpp ****     static int createThread(
  17:src/../h/kernelThread.hpp ****                 kernelThread **handle,
  18:src/../h/kernelThread.hpp ****                 Body body,
  19:src/../h/kernelThread.hpp ****                 void *args,
  20:src/../h/kernelThread.hpp ****                 uint64 *stack);
  21:src/../h/kernelThread.hpp ****     static int threadExit();
  22:src/../h/kernelThread.hpp ****     static void dispatchThread();
  23:src/../h/kernelThread.hpp ****     static int startThread(kernelThread *handle);
  24:src/../h/kernelThread.hpp ****     static void yield();
  25:src/../h/kernelThread.hpp ****     static int deleteThread(kernelThread *handle);
  26:src/../h/kernelThread.hpp **** 
  27:src/../h/kernelThread.hpp ****     ~kernelThread(){
  28:src/../h/kernelThread.hpp ****         //MemoryAllocator::getInstance().mem_free(stack);
  29:src/../h/kernelThread.hpp ****         //mem_free(stack);
  30:src/../h/kernelThread.hpp ****         delete stack;
  31:src/../h/kernelThread.hpp ****     };
  32:src/../h/kernelThread.hpp **** 
  33:src/../h/kernelThread.hpp ****     struct Context{
  34:src/../h/kernelThread.hpp ****         uint64 ra;
  35:src/../h/kernelThread.hpp ****         uint64 sp;
  36:src/../h/kernelThread.hpp ****     };
  37:src/../h/kernelThread.hpp **** 
  38:src/../h/kernelThread.hpp ****     static void contextSwitch(Context *oldContext, Context *runningContext);
  39:src/../h/kernelThread.hpp ****     static void threadWrapper();
  40:src/../h/kernelThread.hpp **** 
  41:src/../h/kernelThread.hpp ****     //  GETTERS & SETTERS  //
  42:src/../h/kernelThread.hpp **** 
  43:src/../h/kernelThread.hpp ****     bool isReady() const {
  44:src/../h/kernelThread.hpp ****         return ready;
  45:src/../h/kernelThread.hpp ****     }
  46:src/../h/kernelThread.hpp **** 
  47:src/../h/kernelThread.hpp ****     void setReady(bool ready) {
  48:src/../h/kernelThread.hpp ****         kernelThread::ready = ready;
  49:src/../h/kernelThread.hpp ****     }
  50:src/../h/kernelThread.hpp **** 
  51:src/../h/kernelThread.hpp ****     bool isBlocked() const {
  52:src/../h/kernelThread.hpp ****         return blocked;
  53:src/../h/kernelThread.hpp ****     }
  54:src/../h/kernelThread.hpp **** 
  55:src/../h/kernelThread.hpp ****     void setBlocked(bool blocked) {
  56:src/../h/kernelThread.hpp ****         kernelThread::blocked = blocked;
 149              		.loc 5 56 9
 150              		.loc 5 56 31 is_stmt 0
 151 00c8 A3840902 		sb	zero,41(s3)
 152              	.LVL13:
 153              	.LBE57:
GAS LISTING /tmp/ccDmR6lH.s 			page 7


 154              	.LBE56:
  18:src/kernelSemaphore.cpp ****         blocked->setReady(true);
 155              		.loc 1 18 9 is_stmt 1
 156              	.LBB58:
 157              	.LBB59:
  48:src/../h/kernelThread.hpp ****     }
 158              		.loc 5 48 9
  48:src/../h/kernelThread.hpp ****     }
 159              		.loc 5 48 29 is_stmt 0
 160 00cc 93071000 		li	a5,1
 161 00d0 2384F902 		sb	a5,40(s3)
 162              	.LVL14:
 163              	.LBE59:
 164              	.LBE58:
  19:src/kernelSemaphore.cpp ****         Scheduler::putInScheduler(blocked);
 165              		.loc 1 19 9 is_stmt 1
 166              		.loc 1 19 34 is_stmt 0
 167 00d4 13850900 		mv	a0,s3
 168 00d8 97000000 		call	_ZN9Scheduler14putInSchedulerEP12kernelThread@plt
 168      E7800000 
 169              	.LVL15:
  20:src/kernelSemaphore.cpp ****         handle->semValue++;
 170              		.loc 1 20 9 is_stmt 1
 171              		.loc 1 20 17 is_stmt 0
 172 00e0 83A70400 		lw	a5,0(s1)
 173              		.loc 1 20 25
 174 00e4 9B871700 		addiw	a5,a5,1
 175 00e8 23A0F400 		sw	a5,0(s1)
 176              	.LVL16:
 177              	.L12:
 178              	.LBE48:
  14:src/kernelSemaphore.cpp ****         kernelThread *blocked = handle->blockedThreads.removeFirst();
 179              		.loc 1 14 5 is_stmt 1
  14:src/kernelSemaphore.cpp ****         kernelThread *blocked = handle->blockedThreads.removeFirst();
 180              		.loc 1 14 28
  14:src/kernelSemaphore.cpp ****         kernelThread *blocked = handle->blockedThreads.removeFirst();
 181              		.loc 1 14 19 is_stmt 0
 182 00ec 83A70400 		lw	a5,0(s1)
  14:src/kernelSemaphore.cpp ****         kernelThread *blocked = handle->blockedThreads.removeFirst();
 183              		.loc 1 14 28
 184 00f0 63DA0702 		bgez	a5,.L8
 185              	.LBB61:
  15:src/kernelSemaphore.cpp ****         //blocked->startThread(blocked);
 186              		.loc 1 15 9 is_stmt 1
 187              	.LBB60:
 188              	.LBB55:
  58:src/../h/list.hpp ****         Elem *elem = head;
 189              		.loc 2 58 12 is_stmt 0
 190 00f4 03B98400 		ld	s2,8(s1)
  58:src/../h/list.hpp ****         Elem *elem = head;
 191              		.loc 2 58 9
 192 00f8 63020902 		beqz	s2,.L15
 193              	.LVL17:
  60:src/../h/list.hpp ****         if(head == nullptr){
 194              		.loc 2 60 22
 195 00fc 83378900 		ld	a5,8(s2)
  60:src/../h/list.hpp ****         if(head == nullptr){
GAS LISTING /tmp/ccDmR6lH.s 			page 8


 196              		.loc 2 60 9
 197 0100 23B4F400 		sd	a5,8(s1)
  61:src/../h/list.hpp ****             tail = nullptr;
 198              		.loc 2 61 9
 199 0104 E38607F8 		beqz	a5,.L17
 200              	.L10:
  64:src/../h/list.hpp ****         //delete elem;
 201              		.loc 2 64 12
 202 0108 83390900 		ld	s3,0(s2)
 203              	.LVL18:
 204              	.LBB54:
 205              	.LBB53:
  32:src/../h/memoryAllocator.hpp ****         return instance;
 206              		.loc 4 32 9 is_stmt 1
  32:src/../h/memoryAllocator.hpp ****         return instance;
 207              		.loc 4 32 32 is_stmt 0
 208 010c 97070000 		lbu	a5,_ZGVZN15MemoryAllocator11getInstanceEvE8instance
 208      83C70700 
 209 0114 E39007FA 		bnez	a5,.L11
 210 0118 6FF01FF8 		j	.L18
 211              	.LVL19:
 212              	.L15:
 213              	.LBE53:
 214              	.LBE54:
  58:src/../h/list.hpp ****         Elem *elem = head;
 215              		.loc 2 58 36
 216 011c 93090900 		mv	s3,s2
 217 0120 6FF09FFA 		j	.L9
 218              	.L8:
 219              	.LBE55:
 220              	.LBE60:
 221              	.LBE61:
  21:src/kernelSemaphore.cpp ****     }
  22:src/kernelSemaphore.cpp **** 
  23:src/kernelSemaphore.cpp ****     MemoryAllocator::getInstance().mem_free(handle);
 222              		.loc 1 23 5 is_stmt 1
 223              	.LBB62:
 224              	.LBB63:
  32:src/../h/memoryAllocator.hpp ****         return instance;
 225              		.loc 4 32 9
  32:src/../h/memoryAllocator.hpp ****         return instance;
 226              		.loc 4 32 32 is_stmt 0
 227 0124 97070000 		lbu	a5,_ZGVZN15MemoryAllocator11getInstanceEvE8instance
 227      83C70700 
 228 012c 638C0702 		beqz	a5,.L19
 229              	.L13:
 230              		.loc 4 33 9 is_stmt 1
 231              	.LBE63:
 232              	.LBE62:
 233              		.loc 1 23 44 is_stmt 0
 234 0130 93850400 		mv	a1,s1
 235 0134 17050000 		lla	a0,_ZZN15MemoryAllocator11getInstanceEvE8instance
 235      13050500 
 236 013c 97000000 		call	_ZN15MemoryAllocator8mem_freeEPv@plt
 236      E7800000 
 237              	.LVL20:
  24:src/kernelSemaphore.cpp **** 
GAS LISTING /tmp/ccDmR6lH.s 			page 9


  25:src/kernelSemaphore.cpp ****     return 0;
 238              		.loc 1 25 5 is_stmt 1
 239              		.loc 1 25 12 is_stmt 0
 240 0144 13050000 		li	a0,0
 241              	.L7:
  26:src/kernelSemaphore.cpp **** };
 242              		.loc 1 26 1
 243 0148 83308102 		ld	ra,40(sp)
 244              		.cfi_remember_state
 245              		.cfi_restore 1
 246 014c 03340102 		ld	s0,32(sp)
 247              		.cfi_restore 8
 248              		.cfi_def_cfa 2, 48
 249 0150 83348101 		ld	s1,24(sp)
 250              		.cfi_restore 9
 251              	.LVL21:
 252 0154 03390101 		ld	s2,16(sp)
 253              		.cfi_restore 18
 254 0158 83398100 		ld	s3,8(sp)
 255              		.cfi_restore 19
 256 015c 13010103 		addi	sp,sp,48
 257              		.cfi_def_cfa_offset 0
 258 0160 67800000 		jr	ra
 259              	.LVL22:
 260              	.L19:
 261              		.cfi_restore_state
 262              	.LBB65:
 263              	.LBB64:
  32:src/../h/memoryAllocator.hpp ****         return instance;
 264              		.loc 4 32 32
 265 0164 17050000 		lla	a0,_ZZN15MemoryAllocator11getInstanceEvE8instance
 265      13050500 
 266 016c 97000000 		call	_ZN15MemoryAllocatorC1Ev@plt
 266      E7800000 
 267              	.LVL23:
 268 0174 93071000 		li	a5,1
 269 0178 17070000 		sb	a5,_ZGVZN15MemoryAllocator11getInstanceEvE8instance,a4
 269      2300F700 
 270 0180 6FF01FFB 		j	.L13
 271              	.LBE64:
 272              	.LBE65:
 273              		.cfi_endproc
 274              	.LFE50:
 276              		.align	2
 277              		.globl	_ZN15kernelSemaphore6signalEv
 279              	_ZN15kernelSemaphore6signalEv:
 280              	.LFB51:
  27:src/kernelSemaphore.cpp **** 
  28:src/kernelSemaphore.cpp **** int kernelSemaphore::signal(){
 281              		.loc 1 28 30 is_stmt 1
 282              		.cfi_startproc
 283              	.LVL24:
  29:src/kernelSemaphore.cpp ****     ++semValue;
 284              		.loc 1 29 5
 285              		.loc 1 29 7 is_stmt 0
 286 0184 83270500 		lw	a5,0(a0)
 287              		.loc 1 29 5
GAS LISTING /tmp/ccDmR6lH.s 			page 10


 288 0188 9B871700 		addiw	a5,a5,1
 289 018c 1B870700 		sext.w	a4,a5
 290 0190 2320F500 		sw	a5,0(a0)
  30:src/kernelSemaphore.cpp ****     if(semValue <= 0){
 291              		.loc 1 30 5 is_stmt 1
 292              	.LBB76:
 293 0194 6356E000 		blez	a4,.L32
 294              	.LBE76:
  31:src/kernelSemaphore.cpp ****         //UNBLOCK THREAD
  32:src/kernelSemaphore.cpp ****         kernelThread *blocked = blockedThreads.removeFirst();
  33:src/kernelSemaphore.cpp ****         if(blocked == nullptr) return -1;
  34:src/kernelSemaphore.cpp ****         //blocked->startThread(blocked);
  35:src/kernelSemaphore.cpp ****         blocked->setBlocked(false);
  36:src/kernelSemaphore.cpp ****         blocked->setReady(true);
  37:src/kernelSemaphore.cpp ****         Scheduler::putInScheduler(blocked);
  38:src/kernelSemaphore.cpp ****     }
  39:src/kernelSemaphore.cpp ****     return 0;
 295              		.loc 1 39 12 is_stmt 0
 296 0198 13050000 		li	a0,0
 297              	.LVL25:
  40:src/kernelSemaphore.cpp **** };
 298              		.loc 1 40 1
 299 019c 67800000 		ret
 300              	.LVL26:
 301              	.L32:
  28:src/kernelSemaphore.cpp ****     ++semValue;
 302              		.loc 1 28 30
 303 01a0 130101FE 		addi	sp,sp,-32
 304              		.cfi_def_cfa_offset 32
 305 01a4 233C1100 		sd	ra,24(sp)
 306 01a8 23388100 		sd	s0,16(sp)
 307 01ac 23349100 		sd	s1,8(sp)
 308 01b0 23302101 		sd	s2,0(sp)
 309              		.cfi_offset 1, -8
 310              		.cfi_offset 8, -16
 311              		.cfi_offset 9, -24
 312              		.cfi_offset 18, -32
 313 01b4 13040102 		addi	s0,sp,32
 314              		.cfi_def_cfa 8, 0
 315              	.LBB91:
 316              	.LBB77:
  32:src/kernelSemaphore.cpp ****         if(blocked == nullptr) return -1;
 317              		.loc 1 32 9 is_stmt 1
 318              	.LBB78:
 319              	.LBB79:
  58:src/../h/list.hpp ****         Elem *elem = head;
 320              		.loc 2 58 12 is_stmt 0
 321 01b8 03398500 		ld	s2,8(a0)
  58:src/../h/list.hpp ****         Elem *elem = head;
 322              		.loc 2 58 9
 323 01bc 630A0908 		beqz	s2,.L26
 324              	.LVL27:
  60:src/../h/list.hpp ****         if(head == nullptr){
 325              		.loc 2 60 22
 326 01c0 83378900 		ld	a5,8(s2)
  60:src/../h/list.hpp ****         if(head == nullptr){
 327              		.loc 2 60 9
GAS LISTING /tmp/ccDmR6lH.s 			page 11


 328 01c4 2334F500 		sd	a5,8(a0)
  61:src/../h/list.hpp ****             tail = nullptr;
 329              		.loc 2 61 9
 330 01c8 63800706 		beqz	a5,.L33
 331              	.L23:
  64:src/../h/list.hpp ****         //delete elem;
 332              		.loc 2 64 12
 333 01cc 83340900 		ld	s1,0(s2)
 334              	.LVL28:
 335              	.LBB80:
 336              	.LBB81:
  32:src/../h/memoryAllocator.hpp ****         return instance;
 337              		.loc 4 32 9 is_stmt 1
  32:src/../h/memoryAllocator.hpp ****         return instance;
 338              		.loc 4 32 32 is_stmt 0
 339 01d0 97070000 		lbu	a5,_ZGVZN15MemoryAllocator11getInstanceEvE8instance
 339      83C70700 
 340 01d8 638C0704 		beqz	a5,.L34
 341              	.LVL29:
 342              	.L24:
 343              		.loc 4 33 9 is_stmt 1
 344              	.LBE81:
 345              	.LBE80:
 346              		.loc 2 66 9 is_stmt 0
 347 01dc 93050900 		mv	a1,s2
 348 01e0 17050000 		lla	a0,_ZZN15MemoryAllocator11getInstanceEvE8instance
 348      13050500 
 349 01e8 97000000 		call	_ZN15MemoryAllocator8mem_freeEPv@plt
 349      E7800000 
 350              	.LVL30:
 351              	.L22:
 352              	.LBE79:
 353              	.LBE78:
  33:src/kernelSemaphore.cpp ****         //blocked->startThread(blocked);
 354              		.loc 1 33 9 is_stmt 1
 355 01f0 63840406 		beqz	s1,.L27
  35:src/kernelSemaphore.cpp ****         blocked->setReady(true);
 356              		.loc 1 35 9
 357              	.LVL31:
 358              	.LBB85:
 359              	.LBB86:
 360              		.loc 5 56 9
 361              		.loc 5 56 31 is_stmt 0
 362 01f4 A3840402 		sb	zero,41(s1)
 363              	.LVL32:
 364              	.LBE86:
 365              	.LBE85:
  36:src/kernelSemaphore.cpp ****         Scheduler::putInScheduler(blocked);
 366              		.loc 1 36 9 is_stmt 1
 367              	.LBB87:
 368              	.LBB88:
  48:src/../h/kernelThread.hpp ****     }
 369              		.loc 5 48 9
  48:src/../h/kernelThread.hpp ****     }
 370              		.loc 5 48 29 is_stmt 0
 371 01f8 93071000 		li	a5,1
 372 01fc 2384F402 		sb	a5,40(s1)
GAS LISTING /tmp/ccDmR6lH.s 			page 12


 373              	.LVL33:
 374              	.LBE88:
 375              	.LBE87:
  37:src/kernelSemaphore.cpp ****     }
 376              		.loc 1 37 9 is_stmt 1
  37:src/kernelSemaphore.cpp ****     }
 377              		.loc 1 37 34 is_stmt 0
 378 0200 13850400 		mv	a0,s1
 379 0204 97000000 		call	_ZN9Scheduler14putInSchedulerEP12kernelThread@plt
 379      E7800000 
 380              	.LVL34:
 381              	.LBE77:
 382              	.LBE91:
  39:src/kernelSemaphore.cpp **** };
 383              		.loc 1 39 12
 384 020c 13050000 		li	a0,0
 385              	.L21:
 386              		.loc 1 40 1
 387 0210 83308101 		ld	ra,24(sp)
 388              		.cfi_remember_state
 389              		.cfi_restore 1
 390 0214 03340101 		ld	s0,16(sp)
 391              		.cfi_restore 8
 392              		.cfi_def_cfa 2, 32
 393 0218 83348100 		ld	s1,8(sp)
 394              		.cfi_restore 9
 395              	.LVL35:
 396 021c 03390100 		ld	s2,0(sp)
 397              		.cfi_restore 18
 398 0220 13010102 		addi	sp,sp,32
 399              		.cfi_def_cfa_offset 0
 400 0224 67800000 		jr	ra
 401              	.LVL36:
 402              	.L33:
 403              		.cfi_restore_state
 404              	.LBB92:
 405              	.LBB90:
 406              	.LBB89:
 407              	.LBB84:
  62:src/../h/list.hpp ****         }
 408              		.loc 2 62 13
 409 0228 23380500 		sd	zero,16(a0)
 410 022c 6FF01FFA 		j	.L23
 411              	.LVL37:
 412              	.L34:
 413              	.LBB83:
 414              	.LBB82:
  32:src/../h/memoryAllocator.hpp ****         return instance;
 415              		.loc 4 32 32
 416 0230 17050000 		lla	a0,_ZZN15MemoryAllocator11getInstanceEvE8instance
 416      13050500 
 417              	.LVL38:
 418 0238 97000000 		call	_ZN15MemoryAllocatorC1Ev@plt
 418      E7800000 
 419              	.LVL39:
 420 0240 93071000 		li	a5,1
 421 0244 17070000 		sb	a5,_ZGVZN15MemoryAllocator11getInstanceEvE8instance,a4
GAS LISTING /tmp/ccDmR6lH.s 			page 13


 421      2300F700 
 422 024c 6FF01FF9 		j	.L24
 423              	.LVL40:
 424              	.L26:
 425              	.LBE82:
 426              	.LBE83:
  58:src/../h/list.hpp ****         Elem *elem = head;
 427              		.loc 2 58 36
 428 0250 93040900 		mv	s1,s2
 429 0254 6FF0DFF9 		j	.L22
 430              	.LVL41:
 431              	.L27:
 432              	.LBE84:
 433              	.LBE89:
  33:src/kernelSemaphore.cpp ****         //blocked->startThread(blocked);
 434              		.loc 1 33 40
 435 0258 1305F0FF 		li	a0,-1
 436 025c 6FF05FFB 		j	.L21
 437              	.LBE90:
 438              	.LBE92:
 439              		.cfi_endproc
 440              	.LFE51:
 442              		.align	2
 443              		.globl	_ZN15kernelSemaphore4waitEv
 445              	_ZN15kernelSemaphore4waitEv:
 446              	.LFB52:
  41:src/kernelSemaphore.cpp **** 
  42:src/kernelSemaphore.cpp **** int kernelSemaphore::wait(){
 447              		.loc 1 42 28 is_stmt 1
 448              		.cfi_startproc
 449              	.LVL42:
  43:src/kernelSemaphore.cpp ****     this->semValue--;
 450              		.loc 1 43 5
 451              		.loc 1 43 11 is_stmt 0
 452 0260 83270500 		lw	a5,0(a0)
 453              		.loc 1 43 19
 454 0264 9B87F7FF 		addiw	a5,a5,-1
 455 0268 2320F500 		sw	a5,0(a0)
  44:src/kernelSemaphore.cpp ****     if(semValue < 0){
 456              		.loc 1 44 5 is_stmt 1
 457 026c 13970702 		slli	a4,a5,32
 458 0270 63460700 		bltz	a4,.L44
  45:src/kernelSemaphore.cpp ****         //BLOCK
  46:src/kernelSemaphore.cpp ****         kernelThread::running->setReady(false);
  47:src/kernelSemaphore.cpp ****         kernelThread::running->setBlocked(true);
  48:src/kernelSemaphore.cpp ****         blockedThreads.addLast(kernelThread::running);
  49:src/kernelSemaphore.cpp **** 
  50:src/kernelSemaphore.cpp ****         /*
  51:src/kernelSemaphore.cpp ****         kernelThread::running = Scheduler::getFromScheduler();
  52:src/kernelSemaphore.cpp ****         kernelThread::running->setReady(true);
  53:src/kernelSemaphore.cpp ****         kernelThread::contextSwitch(&current->context, &kernelThread::running->context);
  54:src/kernelSemaphore.cpp ****         */
  55:src/kernelSemaphore.cpp ****         kernelThread::dispatchThread();
  56:src/kernelSemaphore.cpp ****     }
  57:src/kernelSemaphore.cpp ****     return 0;
 459              		.loc 1 57 5
  58:src/kernelSemaphore.cpp **** };
GAS LISTING /tmp/ccDmR6lH.s 			page 14


 460              		.loc 1 58 1 is_stmt 0
 461 0274 13050000 		li	a0,0
 462              	.LVL43:
 463 0278 67800000 		ret
 464              	.LVL44:
 465              	.L44:
  42:src/kernelSemaphore.cpp ****     this->semValue--;
 466              		.loc 1 42 28
 467 027c 130101FD 		addi	sp,sp,-48
 468              		.cfi_def_cfa_offset 48
 469 0280 23341102 		sd	ra,40(sp)
 470 0284 23308102 		sd	s0,32(sp)
 471 0288 233C9100 		sd	s1,24(sp)
 472 028c 23382101 		sd	s2,16(sp)
 473 0290 23343101 		sd	s3,8(sp)
 474              		.cfi_offset 1, -8
 475              		.cfi_offset 8, -16
 476              		.cfi_offset 9, -24
 477              		.cfi_offset 18, -32
 478              		.cfi_offset 19, -40
 479 0294 13040103 		addi	s0,sp,48
 480              		.cfi_def_cfa 8, 0
 481 0298 93040500 		mv	s1,a0
  46:src/kernelSemaphore.cpp ****         kernelThread::running->setBlocked(true);
 482              		.loc 1 46 9 is_stmt 1
  46:src/kernelSemaphore.cpp ****         kernelThread::running->setBlocked(true);
 483              		.loc 1 46 40 is_stmt 0
 484 029c 97070000 		la	a5,_ZN12kernelThread7runningE
 484      83B70700 
 485 02a4 03B90700 		ld	s2,0(a5)
 486              	.LVL45:
 487              	.LBB101:
 488              	.LBB102:
  48:src/../h/kernelThread.hpp ****     }
 489              		.loc 5 48 9 is_stmt 1
  48:src/../h/kernelThread.hpp ****     }
 490              		.loc 5 48 29 is_stmt 0
 491 02a8 23040902 		sb	zero,40(s2)
 492              	.LVL46:
 493              	.LBE102:
 494              	.LBE101:
  47:src/kernelSemaphore.cpp ****         blockedThreads.addLast(kernelThread::running);
 495              		.loc 1 47 9 is_stmt 1
 496              	.LBB103:
 497              	.LBB104:
 498              		.loc 5 56 9
 499              		.loc 5 56 31 is_stmt 0
 500 02ac 93071000 		li	a5,1
 501 02b0 A304F902 		sb	a5,41(s2)
 502              	.LVL47:
 503              	.LBE104:
 504              	.LBE103:
  48:src/kernelSemaphore.cpp **** 
 505              		.loc 1 48 9 is_stmt 1
  48:src/kernelSemaphore.cpp **** 
 506              		.loc 1 48 31 is_stmt 0
 507 02b4 93098500 		addi	s3,a0,8
GAS LISTING /tmp/ccDmR6lH.s 			page 15


 508              	.LVL48:
 509              	.LBB105:
 510              	.LBB106:
 511              	.LBB107:
 512              	.LBB108:
  32:src/../h/memoryAllocator.hpp ****         return instance;
 513              		.loc 4 32 9 is_stmt 1
  32:src/../h/memoryAllocator.hpp ****         return instance;
 514              		.loc 4 32 32 is_stmt 0
 515 02b8 97070000 		lbu	a5,_ZGVZN15MemoryAllocator11getInstanceEvE8instance
 515      83C70700 
 516 02c0 638C0704 		beqz	a5,.L45
 517              	.LVL49:
 518              	.L37:
 519              		.loc 4 33 9 is_stmt 1
 520              	.LBE108:
 521              	.LBE107:
  45:src/../h/list.hpp ****         newElem->next = nullptr;
 522              		.loc 2 45 73 is_stmt 0
 523 02c4 93051000 		li	a1,1
 524 02c8 17050000 		lla	a0,_ZZN15MemoryAllocator11getInstanceEvE8instance
 524      13050500 
 525 02d0 97000000 		call	_ZN15MemoryAllocator9mem_allocEm@plt
 525      E7800000 
 526              	.LVL50:
  46:src/../h/list.hpp ****         newElem->data = data;
 527              		.loc 2 46 9
 528 02d8 23340500 		sd	zero,8(a0)
  47:src/../h/list.hpp ****         if(tail == nullptr){
 529              		.loc 2 47 9
 530 02dc 23302501 		sd	s2,0(a0)
  48:src/../h/list.hpp ****             tail = newElem;
 531              		.loc 2 48 12
 532 02e0 83B78900 		ld	a5,8(s3)
  48:src/../h/list.hpp ****             tail = newElem;
 533              		.loc 2 48 9
 534 02e4 638A0704 		beqz	a5,.L46
  52:src/../h/list.hpp ****             tail = newElem;
 535              		.loc 2 52 13
 536 02e8 23B4A700 		sd	a0,8(a5)
  53:src/../h/list.hpp ****         }
 537              		.loc 2 53 13
 538 02ec 23B4A900 		sd	a0,8(s3)
 539              	.L39:
 540              	.LVL51:
 541              	.LBE106:
 542              	.LBE105:
  55:src/kernelSemaphore.cpp ****     }
 543              		.loc 1 55 9 is_stmt 1
  55:src/kernelSemaphore.cpp ****     }
 544              		.loc 1 55 37 is_stmt 0
 545 02f0 97000000 		call	_ZN12kernelThread14dispatchThreadEv@plt
 545      E7800000 
 546              	.LVL52:
  57:src/kernelSemaphore.cpp **** };
 547              		.loc 1 57 5 is_stmt 1
 548              		.loc 1 58 1 is_stmt 0
GAS LISTING /tmp/ccDmR6lH.s 			page 16


 549 02f8 13050000 		li	a0,0
 550 02fc 83308102 		ld	ra,40(sp)
 551              		.cfi_remember_state
 552              		.cfi_restore 1
 553 0300 03340102 		ld	s0,32(sp)
 554              		.cfi_restore 8
 555              		.cfi_def_cfa 2, 48
 556 0304 83348101 		ld	s1,24(sp)
 557              		.cfi_restore 9
 558              	.LVL53:
 559 0308 03390101 		ld	s2,16(sp)
 560              		.cfi_restore 18
 561 030c 83398100 		ld	s3,8(sp)
 562              		.cfi_restore 19
 563              	.LVL54:
 564 0310 13010103 		addi	sp,sp,48
 565              		.cfi_def_cfa_offset 0
 566 0314 67800000 		jr	ra
 567              	.LVL55:
 568              	.L45:
 569              		.cfi_restore_state
 570              	.LBB112:
 571              	.LBB111:
 572              	.LBB110:
 573              	.LBB109:
  32:src/../h/memoryAllocator.hpp ****         return instance;
 574              		.loc 4 32 32
 575 0318 17050000 		lla	a0,_ZZN15MemoryAllocator11getInstanceEvE8instance
 575      13050500 
 576 0320 97000000 		call	_ZN15MemoryAllocatorC1Ev@plt
 576      E7800000 
 577              	.LVL56:
 578 0328 93071000 		li	a5,1
 579 032c 17070000 		sb	a5,_ZGVZN15MemoryAllocator11getInstanceEvE8instance,a4
 579      2300F700 
 580 0334 6FF01FF9 		j	.L37
 581              	.LVL57:
 582              	.L46:
 583              	.LBE109:
 584              	.LBE110:
  49:src/../h/list.hpp ****             head = newElem;
 585              		.loc 2 49 13
 586 0338 23B4A900 		sd	a0,8(s3)
  50:src/../h/list.hpp ****         }else{
 587              		.loc 2 50 13
 588 033c 23B4A400 		sd	a0,8(s1)
 589 0340 6FF01FFB 		j	.L39
 590              	.LBE111:
 591              	.LBE112:
 592              		.cfi_endproc
 593              	.LFE52:
 595              		.align	2
 596              		.globl	_ZN15kernelSemaphore7tryWaitEv
 598              	_ZN15kernelSemaphore7tryWaitEv:
 599              	.LFB53:
  59:src/kernelSemaphore.cpp **** 
  60:src/kernelSemaphore.cpp **** int kernelSemaphore::tryWait(){
GAS LISTING /tmp/ccDmR6lH.s 			page 17


 600              		.loc 1 60 31 is_stmt 1
 601              		.cfi_startproc
 602              	.LVL58:
 603 0344 130101FF 		addi	sp,sp,-16
 604              		.cfi_def_cfa_offset 16
 605 0348 23348100 		sd	s0,8(sp)
 606              		.cfi_offset 8, -8
 607 034c 13040101 		addi	s0,sp,16
 608              		.cfi_def_cfa 8, 0
  61:src/kernelSemaphore.cpp ****     if(semValue >= 1){
 609              		.loc 1 61 5
 610              		.loc 1 61 8 is_stmt 0
 611 0350 83270500 		lw	a5,0(a0)
 612              		.loc 1 61 5
 613 0354 635EF000 		blez	a5,.L49
  62:src/kernelSemaphore.cpp ****         --semValue;
 614              		.loc 1 62 9 is_stmt 1
 615 0358 9B87F7FF 		addiw	a5,a5,-1
 616 035c 2320F500 		sw	a5,0(a0)
  63:src/kernelSemaphore.cpp ****         return 1;
 617              		.loc 1 63 9
 618              		.loc 1 63 16 is_stmt 0
 619 0360 13051000 		li	a0,1
 620              	.LVL59:
 621              	.L48:
  64:src/kernelSemaphore.cpp ****         //SUCCESS
  65:src/kernelSemaphore.cpp ****     }else{
  66:src/kernelSemaphore.cpp ****         return 0;
  67:src/kernelSemaphore.cpp ****         //ALREADY TAKEN
  68:src/kernelSemaphore.cpp ****     }
  69:src/kernelSemaphore.cpp **** };...
 622              		.loc 1 69 1
 623 0364 03348100 		ld	s0,8(sp)
 624              		.cfi_remember_state
 625              		.cfi_restore 8
 626              		.cfi_def_cfa 2, 16
 627 0368 13010101 		addi	sp,sp,16
 628              		.cfi_def_cfa_offset 0
 629 036c 67800000 		jr	ra
 630              	.LVL60:
 631              	.L49:
 632              		.cfi_restore_state
  66:src/kernelSemaphore.cpp ****         return 0;
 633              		.loc 1 66 16
 634 0370 13050000 		li	a0,0
 635              	.LVL61:
 636 0374 6FF01FFF 		j	.L48
 637              		.cfi_endproc
 638              	.LFE53:
 640              		.weak	_ZGVZN15MemoryAllocator11getInstanceEvE8instance
 641              		.section	.bss._ZGVZN15MemoryAllocator11getInstanceEvE8instance,"awG",@nobits,_ZGVZN15MemoryAllocat
 642              		.align	3
 645              	_ZGVZN15MemoryAllocator11getInstanceEvE8instance:
 646 0000 00000000 		.zero	8
 646      00000000 
 647              		.weak	_ZZN15MemoryAllocator11getInstanceEvE8instance
 648              		.section	.bss._ZZN15MemoryAllocator11getInstanceEvE8instance,"awG",@nobits,_ZZN15MemoryAllocator11
GAS LISTING /tmp/ccDmR6lH.s 			page 18


 649              		.align	3
 652              	_ZZN15MemoryAllocator11getInstanceEvE8instance:
 653 0000 00000000 		.zero	8
 653      00000000 
 654              		.text
 655              	.Letext0:
 656              		.file 6 "src/../h/../lib/hw.h"
 657              		.file 7 "src/../h/scheduler.hpp"
 658              		.file 8 "src/../h/syscall_c.hpp"
GAS LISTING /tmp/ccDmR6lH.s 			page 19

