GAS LISTING /tmp/ccGOUQ9r.s 			page 1


   1              		.file	"main.cpp"
   2              		.option pic
   3              		.option norelax
   4              		.text
   5              	.Ltext0:
   6              		.align	2
   7              		.globl	_Z15userMainWrapperPv
   9              	_Z15userMainWrapperPv:
  10              	.LFB49:
  11              		.file 1 "src/main.cpp"
   1:src/main.cpp  **** #include "../h/kernelThread.hpp"
   2:src/main.cpp  **** #include "../h/syscall_c.hpp"
   3:src/main.cpp  **** #include "../h/riscv.hpp"
   4:src/main.cpp  **** //#include "../javniTestovi/userMain.cpp"
   5:src/main.cpp  **** 
   6:src/main.cpp  **** extern void userMain();
   7:src/main.cpp  **** 
   8:src/main.cpp  **** void userMainWrapper(void *arg){
  12              		.loc 1 8 32
  13              		.cfi_startproc
  14              	.LVL0:
  15 0000 130101FF 		addi	sp,sp,-16
  16              		.cfi_def_cfa_offset 16
  17 0004 23341100 		sd	ra,8(sp)
  18 0008 23308100 		sd	s0,0(sp)
  19              		.cfi_offset 1, -8
  20              		.cfi_offset 8, -16
  21 000c 13040101 		addi	s0,sp,16
  22              		.cfi_def_cfa 8, 0
   9:src/main.cpp  ****     userMain();
  23              		.loc 1 9 5
  24              		.loc 1 9 13 is_stmt 0
  25 0010 97000000 		call	_Z8userMainv@plt
  25      E7800000 
  26              	.LVL1:
  10:src/main.cpp  **** }
  27              		.loc 1 10 1
  28 0018 83308100 		ld	ra,8(sp)
  29              		.cfi_restore 1
  30 001c 03340100 		ld	s0,0(sp)
  31              		.cfi_restore 8
  32              		.cfi_def_cfa 2, 16
  33 0020 13010101 		addi	sp,sp,16
  34              		.cfi_def_cfa_offset 0
  35 0024 67800000 		jr	ra
  36              		.cfi_endproc
  37              	.LFE49:
  39              		.section	.rodata.str1.8,"aMS",@progbits,1
  40              		.align	3
  41              	.LC0:
  42 0000 446F7361 		.string	"Dosao do kraja!\n"
  42      6F20646F 
  42      206B7261 
  42      6A61210A 
  42      00
  43              		.text
  44              		.align	2
GAS LISTING /tmp/ccGOUQ9r.s 			page 2


  45              		.globl	main
  47              	main:
  48              	.LFB50:
  11:src/main.cpp  **** 
  12:src/main.cpp  **** int main () {
  49              		.loc 1 12 13 is_stmt 1
  50              		.cfi_startproc
  51 0028 130101FE 		addi	sp,sp,-32
  52              		.cfi_def_cfa_offset 32
  53 002c 233C1100 		sd	ra,24(sp)
  54 0030 23388100 		sd	s0,16(sp)
  55              		.cfi_offset 1, -8
  56              		.cfi_offset 8, -16
  57 0034 13040102 		addi	s0,sp,32
  58              		.cfi_def_cfa 8, 0
  13:src/main.cpp  **** 
  14:src/main.cpp  ****     Riscv::w_stvec((uint64) &Riscv::supervisorTrap);
  59              		.loc 1 14 5
  60              		.loc 1 14 19 is_stmt 0
  61 0038 97070000 		la	a5,_ZN5Riscv14supervisorTrapEv
  61      83B70700 
  62              	.LVL2:
  63              	.LBB8:
  64              	.LBB9:
  65              		.file 2 "src/../h/../h/riscv.hpp"
   1:src/../h/../h/riscv.hpp **** #ifndef RISCV_HPP
   2:src/../h/../h/riscv.hpp **** #define RISCV_HPP
   3:src/../h/../h/riscv.hpp **** 
   4:src/../h/../h/riscv.hpp **** #include "../lib/hw.h"
   5:src/../h/../h/riscv.hpp **** #include "kernelThread.hpp"
   6:src/../h/../h/riscv.hpp **** #include "kernelSemaphore.hpp"
   7:src/../h/../h/riscv.hpp **** #include "printMethods.hpp"
   8:src/../h/../h/riscv.hpp **** #include "../lib/console.h"
   9:src/../h/../h/riscv.hpp **** #include "memoryAllocator.hpp"
  10:src/../h/../h/riscv.hpp **** 
  11:src/../h/../h/riscv.hpp **** class Riscv{
  12:src/../h/../h/riscv.hpp **** 
  13:src/../h/../h/riscv.hpp **** public:
  14:src/../h/../h/riscv.hpp **** 
  15:src/../h/../h/riscv.hpp ****     static void popAllRegisters();
  16:src/../h/../h/riscv.hpp ****     static void pushAllRegisters();
  17:src/../h/../h/riscv.hpp **** 
  18:src/../h/../h/riscv.hpp ****     //cant be inline / must jump!!!
  19:src/../h/../h/riscv.hpp ****     static void popSppSpie();
  20:src/../h/../h/riscv.hpp **** 
  21:src/../h/../h/riscv.hpp **** 
  22:src/../h/../h/riscv.hpp ****     //method for ecall and passing the arguments
  23:src/../h/../h/riscv.hpp ****     static void ecallWithFourArguments(uint64 a0,
  24:src/../h/../h/riscv.hpp ****                                    uint64 a1,
  25:src/../h/../h/riscv.hpp ****                                    uint64 a2,
  26:src/../h/../h/riscv.hpp ****                                    uint64 a3,
  27:src/../h/../h/riscv.hpp ****                                    uint64 a4);
  28:src/../h/../h/riscv.hpp **** 
  29:src/../h/../h/riscv.hpp ****     static void ecallWithThreeArguments(uint64 a0,
  30:src/../h/../h/riscv.hpp ****                                         uint64 a1,
  31:src/../h/../h/riscv.hpp ****                                         uint64 a2,
  32:src/../h/../h/riscv.hpp ****                                         uint64 a3);
GAS LISTING /tmp/ccGOUQ9r.s 			page 3


  33:src/../h/../h/riscv.hpp **** 
  34:src/../h/../h/riscv.hpp ****     static void ecallWithTwoArguments(uint64 a0,
  35:src/../h/../h/riscv.hpp ****                                       uint64 a1,
  36:src/../h/../h/riscv.hpp ****                                       uint64 a2);
  37:src/../h/../h/riscv.hpp **** 
  38:src/../h/../h/riscv.hpp ****     static void ecallWithOneArgument(uint64 a0,
  39:src/../h/../h/riscv.hpp ****                                      uint64 a1);
  40:src/../h/../h/riscv.hpp **** 
  41:src/../h/../h/riscv.hpp ****     static void ecallWithoutArguments(uint64 a0);
  42:src/../h/../h/riscv.hpp **** 
  43:src/../h/../h/riscv.hpp ****     //pushing reg a0 to context
  44:src/../h/../h/riscv.hpp ****     static void pushReturnValueToStack(uint64 retVal);
  45:src/../h/../h/riscv.hpp **** 
  46:src/../h/../h/riscv.hpp ****     //reading and writing registers for arguments, code and return values
  47:src/../h/../h/riscv.hpp ****     static uint64 r_a0();
  48:src/../h/../h/riscv.hpp ****     static void w_a0(uint64 value);
  49:src/../h/../h/riscv.hpp ****     static uint64 r_a1();
  50:src/../h/../h/riscv.hpp ****     static void w_a1(uint64 value);
  51:src/../h/../h/riscv.hpp ****     static uint64 r_a2();
  52:src/../h/../h/riscv.hpp ****     static void w_a2(uint64 value);
  53:src/../h/../h/riscv.hpp ****     static uint64 r_a3();
  54:src/../h/../h/riscv.hpp ****     static void w_a3(uint64 value);
  55:src/../h/../h/riscv.hpp ****     static uint64 r_a4();
  56:src/../h/../h/riscv.hpp ****     static void w_a4(uint64 value);
  57:src/../h/../h/riscv.hpp **** 
  58:src/../h/../h/riscv.hpp ****     //getting return value from method
  59:src/../h/../h/riscv.hpp ****     static uint64 getReturnValue();
  60:src/../h/../h/riscv.hpp **** 
  61:src/../h/../h/riscv.hpp ****     //sepc register / previous PC value
  62:src/../h/../h/riscv.hpp ****     static uint64 r_sepc();
  63:src/../h/../h/riscv.hpp ****     static void w_sepc(uint64 sepc);
  64:src/../h/../h/riscv.hpp **** 
  65:src/../h/../h/riscv.hpp ****     //sstatus register
  66:src/../h/../h/riscv.hpp ****     static uint64 r_sstatus();
  67:src/../h/../h/riscv.hpp ****     static void w_sstatus(uint64 sstatus);
  68:src/../h/../h/riscv.hpp **** 
  69:src/../h/../h/riscv.hpp ****     //stvec / adress of interrupt
  70:src/../h/../h/riscv.hpp ****     static uint64 r_stvec();
  71:src/../h/../h/riscv.hpp ****     static void w_stvec(uint64 stvec);
  72:src/../h/../h/riscv.hpp **** 
  73:src/../h/../h/riscv.hpp ****     //read cause reg
  74:src/../h/../h/riscv.hpp ****     static uint64 r_scause();
  75:src/../h/../h/riscv.hpp **** 
  76:src/../h/../h/riscv.hpp ****     //mask for sip register
  77:src/../h/../h/riscv.hpp ****     enum BitMaskSIP{
  78:src/../h/../h/riscv.hpp ****         SIP_SSIP = (1 << 1),        //software interrupt
  79:src/../h/../h/riscv.hpp ****         SIP_STIP = (1 << 5),        //timer interrupt
  80:src/../h/../h/riscv.hpp ****         SIP_SEIP = (1 << 9)         //external interrupt
  81:src/../h/../h/riscv.hpp ****     };
  82:src/../h/../h/riscv.hpp **** 
  83:src/../h/../h/riscv.hpp ****     //mask for sstatus register
  84:src/../h/../h/riscv.hpp ****     enum BitMaskSSTATUS{
  85:src/../h/../h/riscv.hpp ****         SSTATUS_SIE = (1 << 1),     //disable external interrupt (0)
  86:src/../h/../h/riscv.hpp ****         SSTATUS_SPIE = (1 << 5),    //previous value of SPP
  87:src/../h/../h/riscv.hpp ****         SSTATUS_SPP = (1 << 8)      //privilige in which interrupt happend
  88:src/../h/../h/riscv.hpp ****     };
  89:src/../h/../h/riscv.hpp **** 
GAS LISTING /tmp/ccGOUQ9r.s 			page 4


  90:src/../h/../h/riscv.hpp ****     //sip - interrupt register
  91:src/../h/../h/riscv.hpp ****     static uint64 r_sip();
  92:src/../h/../h/riscv.hpp ****     static void w_sip(uint64 sip);
  93:src/../h/../h/riscv.hpp **** 
  94:src/../h/../h/riscv.hpp ****     //masking bits in sip and sstatus register - S - set / C - clear
  95:src/../h/../h/riscv.hpp ****     static void ms_sip(uint64 mask);
  96:src/../h/../h/riscv.hpp ****     static void mc_sip(uint64 mask);
  97:src/../h/../h/riscv.hpp **** 
  98:src/../h/../h/riscv.hpp ****     static void ms_sstatus(uint64 mask);
  99:src/../h/../h/riscv.hpp ****     static void mc_sstatus(uint64 mask);
 100:src/../h/../h/riscv.hpp **** 
 101:src/../h/../h/riscv.hpp ****     //supervisorTrap
 102:src/../h/../h/riscv.hpp ****     static void supervisorTrap();
 103:src/../h/../h/riscv.hpp **** 
 104:src/../h/../h/riscv.hpp **** private:
 105:src/../h/../h/riscv.hpp **** 
 106:src/../h/../h/riscv.hpp ****     static void supervisorTrapHandler();
 107:src/../h/../h/riscv.hpp **** 
 108:src/../h/../h/riscv.hpp **** };
 109:src/../h/../h/riscv.hpp **** 
 110:src/../h/../h/riscv.hpp **** //inline definitions of methods above
 111:src/../h/../h/riscv.hpp **** 
 112:src/../h/../h/riscv.hpp **** inline void Riscv::ms_sip(uint64 mask){
 113:src/../h/../h/riscv.hpp ****     __asm__ volatile ("csrs sip, %[mask]" :: [mask] "r" (mask));
 114:src/../h/../h/riscv.hpp **** };
 115:src/../h/../h/riscv.hpp **** inline void Riscv::ms_sstatus(uint64 mask){
 116:src/../h/../h/riscv.hpp ****     __asm__ volatile ("csrs sstatus, %[mask]" :: [mask] "r" (mask));
 117:src/../h/../h/riscv.hpp **** };
 118:src/../h/../h/riscv.hpp **** inline void Riscv::mc_sip(uint64 mask){
 119:src/../h/../h/riscv.hpp ****     __asm__ volatile ("csrc sip, %[mask]" :: [mask] "r" (mask));
 120:src/../h/../h/riscv.hpp **** };
 121:src/../h/../h/riscv.hpp **** inline void Riscv::mc_sstatus(uint64 mask){
 122:src/../h/../h/riscv.hpp ****     __asm__ volatile ("csrc sstatus, %[mask]" :: [mask] "r" (mask));
 123:src/../h/../h/riscv.hpp **** };
 124:src/../h/../h/riscv.hpp **** 
 125:src/../h/../h/riscv.hpp **** 
 126:src/../h/../h/riscv.hpp **** 
 127:src/../h/../h/riscv.hpp **** inline void Riscv::w_sip(uint64 sip){
 128:src/../h/../h/riscv.hpp ****     __asm__ volatile ("csrw sip, %[sip]" :: [sip] "r" (sip));
 129:src/../h/../h/riscv.hpp **** };
 130:src/../h/../h/riscv.hpp **** inline uint64 Riscv::r_sip(){
 131:src/../h/../h/riscv.hpp ****     uint64 sip;
 132:src/../h/../h/riscv.hpp ****     __asm__ volatile ("csrr %[sip], sip" : [sip] "=r" (sip));
 133:src/../h/../h/riscv.hpp ****     return sip;
 134:src/../h/../h/riscv.hpp **** };
 135:src/../h/../h/riscv.hpp **** 
 136:src/../h/../h/riscv.hpp **** inline void Riscv::pushReturnValueToStack(uint64 retVal) {
 137:src/../h/../h/riscv.hpp ****     __asm__ volatile("sd %[retVal], 10 * 8(fp)" ::[retVal] "r" (retVal));
 138:src/../h/../h/riscv.hpp **** };
 139:src/../h/../h/riscv.hpp **** 
 140:src/../h/../h/riscv.hpp **** inline void Riscv::w_stvec(uint64 stvec){
 141:src/../h/../h/riscv.hpp ****     __asm__ volatile ("csrw stvec, %[stvec]" :: [stvec] "r" (stvec));
  66              		.loc 2 141 5 is_stmt 1
  67              		.loc 2 141 69 is_stmt 0
  68              	#APP
  69              	# 141 "src/../h/../h/riscv.hpp" 1
 142              	};
GAS LISTING /tmp/ccGOUQ9r.s 			page 5


  70              		csrw stvec, a5
  71              	# 0 "" 2
  72              	.LVL3:
  73              	#NO_APP
  74              	.LBE9:
  75              	.LBE8:
  15:src/main.cpp  ****     Riscv::ms_sstatus(Riscv::SSTATUS_SIE);
  76              		.loc 1 15 5 is_stmt 1
  77              	.LBB10:
  78              	.LBB11:
 116:src/../h/../h/riscv.hpp **** };
  79              		.loc 2 116 5
 116:src/../h/../h/riscv.hpp **** };
  80              		.loc 2 116 68 is_stmt 0
  81 0044 93072000 		li	a5,2
  82              	#APP
  83              	# 116 "src/../h/../h/riscv.hpp" 1
  84              		csrs sstatus, a5
  85              	# 0 "" 2
  86              	.LVL4:
  87              	#NO_APP
  88              	.LBE11:
  89              	.LBE10:
  16:src/main.cpp  **** 
  17:src/main.cpp  ****     //MAIN nit
  18:src/main.cpp  ****     kernelThread* mainThread;
  90              		.loc 1 18 5 is_stmt 1
  19:src/main.cpp  ****     kernelThread::createThread(
  91              		.loc 1 19 5
  92              		.loc 1 19 31 is_stmt 0
  93 004c 93060000 		li	a3,0
  94 0050 13060000 		li	a2,0
  95 0054 93050000 		li	a1,0
  96 0058 130584FE 		addi	a0,s0,-24
  97 005c 97000000 		call	_ZN12kernelThread12createThreadEPPS_PFvPvES2_Pm@plt
  97      E7800000 
  98              	.LVL5:
  20:src/main.cpp  ****             &mainThread,
  21:src/main.cpp  ****             nullptr,
  22:src/main.cpp  ****             nullptr,
  23:src/main.cpp  ****             nullptr);
  24:src/main.cpp  ****     kernelThread::running = mainThread;
  99              		.loc 1 24 5 is_stmt 1
 100              		.loc 1 24 27 is_stmt 0
 101 0064 97070000 		la	a5,_ZN12kernelThread7runningE
 101      83B70700 
 102 006c 033784FE 		ld	a4,-24(s0)
 103 0070 23B0E700 		sd	a4,0(a5)
  25:src/main.cpp  **** 
  26:src/main.cpp  ****     /*uint64* stack_ptr = (uint64*) MemoryAllocator::getInstance().mem_alloc(DEFAULT_STACK_SIZE * s
  27:src/main.cpp  ****     //USERMAIN nit
  28:src/main.cpp  ****     kernelThread* userMainThread;
  29:src/main.cpp  ****     kernelThread::createThread(
  30:src/main.cpp  ****             &userMainThread,
  31:src/main.cpp  ****             userMainWrapper,
  32:src/main.cpp  ****             nullptr,
  33:src/main.cpp  ****             stack_ptr);
GAS LISTING /tmp/ccGOUQ9r.s 			page 6


  34:src/main.cpp  **** */
  35:src/main.cpp  ****     Riscv::ecallWithoutArguments(0x50);
 104              		.loc 1 35 5 is_stmt 1
 105              		.loc 1 35 33 is_stmt 0
 106 0074 13050005 		li	a0,80
 107 0078 97000000 		call	_ZN5Riscv21ecallWithoutArgumentsEm@plt
 107      E7800000 
 108              	.LVL6:
  36:src/main.cpp  **** 
  37:src/main.cpp  ****     kernelThread* userMainThread;
 109              		.loc 1 37 5 is_stmt 1
  38:src/main.cpp  ****     thread_create(&userMainThread,userMainWrapper,nullptr);
 110              		.loc 1 38 5
 111              		.loc 1 38 18 is_stmt 0
 112 0080 13060000 		li	a2,0
 113 0084 97050000 		lla	a1,_Z15userMainWrapperPv
 113      93850500 
 114 008c 130504FE 		addi	a0,s0,-32
 115 0090 97000000 		call	_Z13thread_createPP12kernelThreadPFvPvES2_@plt
 115      E7800000 
 116              	.LVL7:
 117              	.L5:
  39:src/main.cpp  **** 
  40:src/main.cpp  **** 
  41:src/main.cpp  ****     while(!userMainThread->isFinished()){
 118              		.loc 1 41 5 is_stmt 1
 119              		.loc 1 41 11
 120              		.loc 1 41 38 is_stmt 0
 121 0098 833704FE 		ld	a5,-32(s0)
 122              	.LVL8:
 123              	.LBB12:
 124              	.LBB13:
 125              		.file 3 "src/../h/kernelThread.hpp"
   1:src/../h/kernelThread.hpp **** #ifndef KERNEL_THREAD_HPP
   2:src/../h/kernelThread.hpp **** #define KERNEL_THREAD_HPP
   3:src/../h/kernelThread.hpp **** 
   4:src/../h/kernelThread.hpp **** #include "../lib/mem.h"
   5:src/../h/kernelThread.hpp **** //#include "riscv.hpp"
   6:src/../h/kernelThread.hpp **** #include "scheduler.hpp"
   7:src/../h/kernelThread.hpp **** #include "syscall_c.hpp"
   8:src/../h/kernelThread.hpp **** 
   9:src/../h/kernelThread.hpp **** class kernelThread{
  10:src/../h/kernelThread.hpp **** 
  11:src/../h/kernelThread.hpp **** public:
  12:src/../h/kernelThread.hpp ****     static kernelThread *running;   //current running
  13:src/../h/kernelThread.hpp **** 
  14:src/../h/kernelThread.hpp ****     using Body = void(*)(void *);     //possible void(*)(void *)
  15:src/../h/kernelThread.hpp **** 
  16:src/../h/kernelThread.hpp ****     static int createThread(
  17:src/../h/kernelThread.hpp ****                 kernelThread **handle,
  18:src/../h/kernelThread.hpp ****                 Body body,
  19:src/../h/kernelThread.hpp ****                 void *args,
  20:src/../h/kernelThread.hpp ****                 uint64 *stack);
  21:src/../h/kernelThread.hpp ****     static int threadExit();
  22:src/../h/kernelThread.hpp ****     static void dispatchThread();
  23:src/../h/kernelThread.hpp ****     static int startThread(kernelThread *handle);
  24:src/../h/kernelThread.hpp ****     static void yield();
GAS LISTING /tmp/ccGOUQ9r.s 			page 7


  25:src/../h/kernelThread.hpp ****     static int deleteThread(kernelThread *handle);
  26:src/../h/kernelThread.hpp **** 
  27:src/../h/kernelThread.hpp ****     ~kernelThread(){
  28:src/../h/kernelThread.hpp ****         //MemoryAllocator::getInstance().mem_free(stack);
  29:src/../h/kernelThread.hpp ****         //mem_free(stack);
  30:src/../h/kernelThread.hpp ****         delete stack;
  31:src/../h/kernelThread.hpp ****     };
  32:src/../h/kernelThread.hpp **** 
  33:src/../h/kernelThread.hpp ****     struct Context{
  34:src/../h/kernelThread.hpp ****         uint64 ra;
  35:src/../h/kernelThread.hpp ****         uint64 sp;
  36:src/../h/kernelThread.hpp ****     };
  37:src/../h/kernelThread.hpp **** 
  38:src/../h/kernelThread.hpp ****     static void contextSwitch(Context *oldContext, Context *runningContext);
  39:src/../h/kernelThread.hpp ****     static void threadWrapper();
  40:src/../h/kernelThread.hpp **** 
  41:src/../h/kernelThread.hpp ****     //  GETTERS & SETTERS  //
  42:src/../h/kernelThread.hpp **** 
  43:src/../h/kernelThread.hpp ****     bool isReady() const {
  44:src/../h/kernelThread.hpp ****         return ready;
  45:src/../h/kernelThread.hpp ****     }
  46:src/../h/kernelThread.hpp **** 
  47:src/../h/kernelThread.hpp ****     void setReady(bool ready) {
  48:src/../h/kernelThread.hpp ****         kernelThread::ready = ready;
  49:src/../h/kernelThread.hpp ****     }
  50:src/../h/kernelThread.hpp **** 
  51:src/../h/kernelThread.hpp ****     bool isBlocked() const {
  52:src/../h/kernelThread.hpp ****         return blocked;
  53:src/../h/kernelThread.hpp ****     }
  54:src/../h/kernelThread.hpp **** 
  55:src/../h/kernelThread.hpp ****     void setBlocked(bool blocked) {
  56:src/../h/kernelThread.hpp ****         kernelThread::blocked = blocked;
  57:src/../h/kernelThread.hpp ****     }
  58:src/../h/kernelThread.hpp **** 
  59:src/../h/kernelThread.hpp ****     bool isFinished() const {
  60:src/../h/kernelThread.hpp ****         return finished;
 126              		.loc 3 60 9 is_stmt 1
 127              		.loc 3 60 16 is_stmt 0
 128 009c 83C7A702 		lbu	a5,42(a5)
 129              	.LVL9:
 130              	.LBE13:
 131              	.LBE12:
 132              		.loc 1 41 11
 133 00a0 63980700 		bnez	a5,.L4
  42:src/main.cpp  ****         //printStr("\nPonovo u main-u\n\n");
  43:src/main.cpp  ****         thread_dispatch();
 134              		.loc 1 43 9 is_stmt 1
 135              		.loc 1 43 24 is_stmt 0
 136 00a4 97000000 		call	_Z15thread_dispatchv@plt
 136      E7800000 
 137              	.LVL10:
 138 00ac 6FF0DFFE 		j	.L5
 139              	.L4:
  44:src/main.cpp  ****     }
  45:src/main.cpp  ****     
  46:src/main.cpp  ****     printStr("Dosao do kraja!\n");
 140              		.loc 1 46 5 is_stmt 1
GAS LISTING /tmp/ccGOUQ9r.s 			page 8


 141              		.loc 1 46 13 is_stmt 0
 142 00b0 17050000 		lla	a0,.LC0
 142      13050500 
 143 00b8 97000000 		call	_Z8printStrPKc@plt
 143      E7800000 
 144              	.LVL11:
  47:src/main.cpp  **** 
  48:src/main.cpp  ****     return 0;
 145              		.loc 1 48 5 is_stmt 1
  49:src/main.cpp  **** 
  50:src/main.cpp  **** };
 146              		.loc 1 50 1 is_stmt 0
 147 00c0 13050000 		li	a0,0
 148 00c4 83308101 		ld	ra,24(sp)
 149              		.cfi_restore 1
 150 00c8 03340101 		ld	s0,16(sp)
 151              		.cfi_restore 8
 152              		.cfi_def_cfa 2, 32
 153 00cc 13010102 		addi	sp,sp,32
 154              		.cfi_def_cfa_offset 0
 155 00d0 67800000 		jr	ra
 156              		.cfi_endproc
 157              	.LFE50:
 159              	.Letext0:
 160              		.file 4 "src/../h/../lib/hw.h"
 161              		.file 5 "src/../h/syscall_c.hpp"
 162              		.file 6 "src/../h/../h/printMethods.hpp"
GAS LISTING /tmp/ccGOUQ9r.s 			page 9

