GAS LISTING /tmp/cchs6PMV.s 			page 1


   1              		.file	"syscall_c.cpp"
   2              		.option pic
   3              		.option norelax
   4              		.text
   5              	.Ltext0:
   6              		.align	2
   7              		.globl	_Z9mem_allocm
   9              	_Z9mem_allocm:
  10              	.LFB49:
  11              		.file 1 "src/syscall_c.cpp"
   1:src/syscall_c.cpp **** //
   2:src/syscall_c.cpp **** // Created by os on 5/30/24.
   3:src/syscall_c.cpp **** //
   4:src/syscall_c.cpp **** 
   5:src/syscall_c.cpp **** #include "../h/syscall_c.hpp"
   6:src/syscall_c.cpp **** 
   7:src/syscall_c.cpp **** /*
   8:src/syscall_c.cpp ****  * SYSCALL CODES
   9:src/syscall_c.cpp ****  *
  10:src/syscall_c.cpp ****  * 0x01 mem_alloc
  11:src/syscall_c.cpp ****  * 0x02 mem_free
  12:src/syscall_c.cpp ****  *
  13:src/syscall_c.cpp ****  * 0x11 thread_create       //Done
  14:src/syscall_c.cpp ****  * 0x12 thread_exit         //Done
  15:src/syscall_c.cpp ****  * 0x13 thread_dispatch     //Done
  16:src/syscall_c.cpp ****  * 0x14 thread_start        //Done
  17:src/syscall_c.cpp ****  *
  18:src/syscall_c.cpp ****  * 0x21 sem_open
  19:src/syscall_c.cpp ****  * 0x22 sem_close
  20:src/syscall_c.cpp ****  * 0x23 sem_wait
  21:src/syscall_c.cpp ****  * 0x24 sem_signal
  22:src/syscall_c.cpp ****  * 0x25 sem_timedwait
  23:src/syscall_c.cpp ****  * 0x26 sem_trywait
  24:src/syscall_c.cpp ****  *
  25:src/syscall_c.cpp ****  * 0x31 time_sleep
  26:src/syscall_c.cpp ****  *
  27:src/syscall_c.cpp ****  * 0x41 putc
  28:src/syscall_c.cpp ****  * 0x42 getc
  29:src/syscall_c.cpp ****  */
  30:src/syscall_c.cpp **** 
  31:src/syscall_c.cpp **** //-----CONSOLE-----
  32:src/syscall_c.cpp **** 
  33:src/syscall_c.cpp **** //  0x01
  34:src/syscall_c.cpp **** void* mem_alloc(size_t s){
  12              		.loc 1 34 26
  13              		.cfi_startproc
  14              	.LVL0:
  15 0000 130101FE 		addi	sp,sp,-32
  16              		.cfi_def_cfa_offset 32
  17 0004 233C1100 		sd	ra,24(sp)
  18 0008 23388100 		sd	s0,16(sp)
  19              		.cfi_offset 1, -8
  20              		.cfi_offset 8, -16
  21 000c 13040102 		addi	s0,sp,32
  22              		.cfi_def_cfa 8, 0
  35:src/syscall_c.cpp **** 
  36:src/syscall_c.cpp ****     size_t numBlocks = (s + 16)/MEM_BLOCK_SIZE;
GAS LISTING /tmp/cchs6PMV.s 			page 2


  23              		.loc 1 36 5
  24              		.loc 1 36 27 is_stmt 0
  25 0010 93050501 		addi	a1,a0,16
  26              		.loc 1 36 12
  27 0014 93D56500 		srli	a1,a1,6
  28              	.LVL1:
  37:src/syscall_c.cpp ****     if(s % MEM_BLOCK_SIZE != 0){
  29              		.loc 1 37 5 is_stmt 1
  30              		.loc 1 37 10 is_stmt 0
  31 0018 1375F503 		andi	a0,a0,63
  32              	.LVL2:
  33              		.loc 1 37 5
  34 001c 63040500 		beqz	a0,.L2
  38:src/syscall_c.cpp ****         numBlocks++;
  35              		.loc 1 38 9 is_stmt 1
  36              		.loc 1 38 18 is_stmt 0
  37 0020 93851500 		addi	a1,a1,1
  38              	.LVL3:
  39              	.L2:
  39:src/syscall_c.cpp ****     }
  40:src/syscall_c.cpp **** 
  41:src/syscall_c.cpp ****     Riscv::ecallWithOneArgument(0x01,(uint64)numBlocks);
  40              		.loc 1 41 5 is_stmt 1
  41              		.loc 1 41 32 is_stmt 0
  42 0024 13051000 		li	a0,1
  43 0028 97000000 		call	_ZN5Riscv20ecallWithOneArgumentEmm@plt
  43      E7800000 
  44              	.LVL4:
  42:src/syscall_c.cpp **** 
  43:src/syscall_c.cpp ****     return (void *)Riscv::getReturnValue();
  45              		.loc 1 43 5 is_stmt 1
  46              	.LBB24:
  47              	.LBB25:
  48              		.file 2 "src/../h/../h/riscv.hpp"
   1:src/../h/../h/riscv.hpp **** #ifndef RISCV_HPP
   2:src/../h/../h/riscv.hpp **** #define RISCV_HPP
   3:src/../h/../h/riscv.hpp **** 
   4:src/../h/../h/riscv.hpp **** #include "../lib/hw.h"
   5:src/../h/../h/riscv.hpp **** #include "kernelThread.hpp"
   6:src/../h/../h/riscv.hpp **** #include "kernelSemaphore.hpp"
   7:src/../h/../h/riscv.hpp **** #include "printMethods.hpp"
   8:src/../h/../h/riscv.hpp **** #include "../lib/console.h"
   9:src/../h/../h/riscv.hpp **** #include "memoryAllocator.hpp"
  10:src/../h/../h/riscv.hpp **** 
  11:src/../h/../h/riscv.hpp **** class Riscv{
  12:src/../h/../h/riscv.hpp **** 
  13:src/../h/../h/riscv.hpp **** public:
  14:src/../h/../h/riscv.hpp **** 
  15:src/../h/../h/riscv.hpp ****     static void popAllRegisters();
  16:src/../h/../h/riscv.hpp ****     static void pushAllRegisters();
  17:src/../h/../h/riscv.hpp **** 
  18:src/../h/../h/riscv.hpp ****     //cant be inline / must jump!!!
  19:src/../h/../h/riscv.hpp ****     static void popSppSpie();
  20:src/../h/../h/riscv.hpp **** 
  21:src/../h/../h/riscv.hpp **** 
  22:src/../h/../h/riscv.hpp ****     //method for ecall and passing the arguments
  23:src/../h/../h/riscv.hpp ****     static void ecallWithFourArguments(uint64 a0,
GAS LISTING /tmp/cchs6PMV.s 			page 3


  24:src/../h/../h/riscv.hpp ****                                    uint64 a1,
  25:src/../h/../h/riscv.hpp ****                                    uint64 a2,
  26:src/../h/../h/riscv.hpp ****                                    uint64 a3,
  27:src/../h/../h/riscv.hpp ****                                    uint64 a4);
  28:src/../h/../h/riscv.hpp **** 
  29:src/../h/../h/riscv.hpp ****     static void ecallWithThreeArguments(uint64 a0,
  30:src/../h/../h/riscv.hpp ****                                         uint64 a1,
  31:src/../h/../h/riscv.hpp ****                                         uint64 a2,
  32:src/../h/../h/riscv.hpp ****                                         uint64 a3);
  33:src/../h/../h/riscv.hpp **** 
  34:src/../h/../h/riscv.hpp ****     static void ecallWithTwoArguments(uint64 a0,
  35:src/../h/../h/riscv.hpp ****                                       uint64 a1,
  36:src/../h/../h/riscv.hpp ****                                       uint64 a2);
  37:src/../h/../h/riscv.hpp **** 
  38:src/../h/../h/riscv.hpp ****     static void ecallWithOneArgument(uint64 a0,
  39:src/../h/../h/riscv.hpp ****                                      uint64 a1);
  40:src/../h/../h/riscv.hpp **** 
  41:src/../h/../h/riscv.hpp ****     static void ecallWithoutArguments(uint64 a0);
  42:src/../h/../h/riscv.hpp **** 
  43:src/../h/../h/riscv.hpp ****     //pushing reg a0 to context
  44:src/../h/../h/riscv.hpp ****     static void pushReturnValueToStack(uint64 retVal);
  45:src/../h/../h/riscv.hpp **** 
  46:src/../h/../h/riscv.hpp ****     //reading and writing registers for arguments, code and return values
  47:src/../h/../h/riscv.hpp ****     static uint64 r_a0();
  48:src/../h/../h/riscv.hpp ****     static void w_a0(uint64 value);
  49:src/../h/../h/riscv.hpp ****     static uint64 r_a1();
  50:src/../h/../h/riscv.hpp ****     static void w_a1(uint64 value);
  51:src/../h/../h/riscv.hpp ****     static uint64 r_a2();
  52:src/../h/../h/riscv.hpp ****     static void w_a2(uint64 value);
  53:src/../h/../h/riscv.hpp ****     static uint64 r_a3();
  54:src/../h/../h/riscv.hpp ****     static void w_a3(uint64 value);
  55:src/../h/../h/riscv.hpp ****     static uint64 r_a4();
  56:src/../h/../h/riscv.hpp ****     static void w_a4(uint64 value);
  57:src/../h/../h/riscv.hpp **** 
  58:src/../h/../h/riscv.hpp ****     //getting return value from method
  59:src/../h/../h/riscv.hpp ****     static uint64 getReturnValue();
  60:src/../h/../h/riscv.hpp **** 
  61:src/../h/../h/riscv.hpp ****     //sepc register / previous PC value
  62:src/../h/../h/riscv.hpp ****     static uint64 r_sepc();
  63:src/../h/../h/riscv.hpp ****     static void w_sepc(uint64 sepc);
  64:src/../h/../h/riscv.hpp **** 
  65:src/../h/../h/riscv.hpp ****     //sstatus register
  66:src/../h/../h/riscv.hpp ****     static uint64 r_sstatus();
  67:src/../h/../h/riscv.hpp ****     static void w_sstatus(uint64 sstatus);
  68:src/../h/../h/riscv.hpp **** 
  69:src/../h/../h/riscv.hpp ****     //stvec / adress of interrupt
  70:src/../h/../h/riscv.hpp ****     static uint64 r_stvec();
  71:src/../h/../h/riscv.hpp ****     static void w_stvec(uint64 stvec);
  72:src/../h/../h/riscv.hpp **** 
  73:src/../h/../h/riscv.hpp ****     //read cause reg
  74:src/../h/../h/riscv.hpp ****     static uint64 r_scause();
  75:src/../h/../h/riscv.hpp **** 
  76:src/../h/../h/riscv.hpp ****     //mask for sip register
  77:src/../h/../h/riscv.hpp ****     enum BitMaskSIP{
  78:src/../h/../h/riscv.hpp ****         SIP_SSIP = (1 << 1),        //software interrupt
  79:src/../h/../h/riscv.hpp ****         SIP_STIP = (1 << 5),        //timer interrupt
  80:src/../h/../h/riscv.hpp ****         SIP_SEIP = (1 << 9)         //external interrupt
GAS LISTING /tmp/cchs6PMV.s 			page 4


  81:src/../h/../h/riscv.hpp ****     };
  82:src/../h/../h/riscv.hpp **** 
  83:src/../h/../h/riscv.hpp ****     //mask for sstatus register
  84:src/../h/../h/riscv.hpp ****     enum BitMaskSSTATUS{
  85:src/../h/../h/riscv.hpp ****         SSTATUS_SIE = (1 << 1),     //disable external interrupt (0)
  86:src/../h/../h/riscv.hpp ****         SSTATUS_SPIE = (1 << 5),    //previous value of SPP
  87:src/../h/../h/riscv.hpp ****         SSTATUS_SPP = (1 << 8)      //privilige in which interrupt happend
  88:src/../h/../h/riscv.hpp ****     };
  89:src/../h/../h/riscv.hpp **** 
  90:src/../h/../h/riscv.hpp ****     //sip - interrupt register
  91:src/../h/../h/riscv.hpp ****     static uint64 r_sip();
  92:src/../h/../h/riscv.hpp ****     static void w_sip(uint64 sip);
  93:src/../h/../h/riscv.hpp **** 
  94:src/../h/../h/riscv.hpp ****     //masking bits in sip and sstatus register - S - set / C - clear
  95:src/../h/../h/riscv.hpp ****     static void ms_sip(uint64 mask);
  96:src/../h/../h/riscv.hpp ****     static void mc_sip(uint64 mask);
  97:src/../h/../h/riscv.hpp **** 
  98:src/../h/../h/riscv.hpp ****     static void ms_sstatus(uint64 mask);
  99:src/../h/../h/riscv.hpp ****     static void mc_sstatus(uint64 mask);
 100:src/../h/../h/riscv.hpp **** 
 101:src/../h/../h/riscv.hpp ****     //supervisorTrap
 102:src/../h/../h/riscv.hpp ****     static void supervisorTrap();
 103:src/../h/../h/riscv.hpp **** 
 104:src/../h/../h/riscv.hpp **** private:
 105:src/../h/../h/riscv.hpp **** 
 106:src/../h/../h/riscv.hpp ****     static void supervisorTrapHandler();
 107:src/../h/../h/riscv.hpp **** 
 108:src/../h/../h/riscv.hpp **** };
 109:src/../h/../h/riscv.hpp **** 
 110:src/../h/../h/riscv.hpp **** //inline definitions of methods above
 111:src/../h/../h/riscv.hpp **** 
 112:src/../h/../h/riscv.hpp **** inline void Riscv::ms_sip(uint64 mask){
 113:src/../h/../h/riscv.hpp ****     __asm__ volatile ("csrs sip, %[mask]" :: [mask] "r" (mask));
 114:src/../h/../h/riscv.hpp **** };
 115:src/../h/../h/riscv.hpp **** inline void Riscv::ms_sstatus(uint64 mask){
 116:src/../h/../h/riscv.hpp ****     __asm__ volatile ("csrs sstatus, %[mask]" :: [mask] "r" (mask));
 117:src/../h/../h/riscv.hpp **** };
 118:src/../h/../h/riscv.hpp **** inline void Riscv::mc_sip(uint64 mask){
 119:src/../h/../h/riscv.hpp ****     __asm__ volatile ("csrc sip, %[mask]" :: [mask] "r" (mask));
 120:src/../h/../h/riscv.hpp **** };
 121:src/../h/../h/riscv.hpp **** inline void Riscv::mc_sstatus(uint64 mask){
 122:src/../h/../h/riscv.hpp ****     __asm__ volatile ("csrc sstatus, %[mask]" :: [mask] "r" (mask));
 123:src/../h/../h/riscv.hpp **** };
 124:src/../h/../h/riscv.hpp **** 
 125:src/../h/../h/riscv.hpp **** 
 126:src/../h/../h/riscv.hpp **** 
 127:src/../h/../h/riscv.hpp **** inline void Riscv::w_sip(uint64 sip){
 128:src/../h/../h/riscv.hpp ****     __asm__ volatile ("csrw sip, %[sip]" :: [sip] "r" (sip));
 129:src/../h/../h/riscv.hpp **** };
 130:src/../h/../h/riscv.hpp **** inline uint64 Riscv::r_sip(){
 131:src/../h/../h/riscv.hpp ****     uint64 sip;
 132:src/../h/../h/riscv.hpp ****     __asm__ volatile ("csrr %[sip], sip" : [sip] "=r" (sip));
 133:src/../h/../h/riscv.hpp ****     return sip;
 134:src/../h/../h/riscv.hpp **** };
 135:src/../h/../h/riscv.hpp **** 
 136:src/../h/../h/riscv.hpp **** inline void Riscv::pushReturnValueToStack(uint64 retVal) {
 137:src/../h/../h/riscv.hpp ****     __asm__ volatile("sd %[retVal], 10 * 8(fp)" ::[retVal] "r" (retVal));
GAS LISTING /tmp/cchs6PMV.s 			page 5


 138:src/../h/../h/riscv.hpp **** };
 139:src/../h/../h/riscv.hpp **** 
 140:src/../h/../h/riscv.hpp **** inline void Riscv::w_stvec(uint64 stvec){
 141:src/../h/../h/riscv.hpp ****     __asm__ volatile ("csrw stvec, %[stvec]" :: [stvec] "r" (stvec));
 142:src/../h/../h/riscv.hpp **** };
 143:src/../h/../h/riscv.hpp **** inline uint64 Riscv::r_stvec(){
 144:src/../h/../h/riscv.hpp ****     uint64 stvec;
 145:src/../h/../h/riscv.hpp ****     __asm__ volatile ("csrr %[stvec], stvec" : [stvec] "=r" (stvec));
 146:src/../h/../h/riscv.hpp ****     return stvec;
 147:src/../h/../h/riscv.hpp **** };
 148:src/../h/../h/riscv.hpp **** 
 149:src/../h/../h/riscv.hpp **** inline void Riscv::w_sstatus(uint64 sstatus){
 150:src/../h/../h/riscv.hpp ****     __asm__ volatile ("csrw sstatus, %[sstatus]" :: [sstatus] "r" (sstatus));
 151:src/../h/../h/riscv.hpp **** };
 152:src/../h/../h/riscv.hpp **** inline uint64 Riscv::r_sstatus(){
 153:src/../h/../h/riscv.hpp ****     uint64 sstatus;
 154:src/../h/../h/riscv.hpp ****     __asm__ volatile ("csrr %[sstatus], sstatus" : [sstatus] "=r" (sstatus));
 155:src/../h/../h/riscv.hpp ****     return sstatus;
 156:src/../h/../h/riscv.hpp **** };
 157:src/../h/../h/riscv.hpp **** 
 158:src/../h/../h/riscv.hpp **** inline void Riscv::w_sepc(uint64 sepc){
 159:src/../h/../h/riscv.hpp ****     __asm__ volatile ("csrw sepc, %[sepc]" :: [sepc] "r" (sepc));
 160:src/../h/../h/riscv.hpp **** };
 161:src/../h/../h/riscv.hpp **** inline uint64 Riscv::r_sepc(){
 162:src/../h/../h/riscv.hpp ****     uint64 sepc;
 163:src/../h/../h/riscv.hpp ****     __asm__ volatile ("csrr %[sepc], sepc" : [sepc] "=r" (sepc));
 164:src/../h/../h/riscv.hpp ****     return sepc;
 165:src/../h/../h/riscv.hpp **** };
 166:src/../h/../h/riscv.hpp **** 
 167:src/../h/../h/riscv.hpp **** inline uint64 Riscv::r_scause(){
 168:src/../h/../h/riscv.hpp ****     uint64 volatile scause;
 169:src/../h/../h/riscv.hpp ****     __asm__ volatile ("csrr %[scause], scause" : [scause] "=r" (scause));
 170:src/../h/../h/riscv.hpp ****     return scause;
 171:src/../h/../h/riscv.hpp **** };
 172:src/../h/../h/riscv.hpp **** 
 173:src/../h/../h/riscv.hpp **** //registers a0 - a4
 174:src/../h/../h/riscv.hpp **** inline uint64 Riscv::r_a0(){
 175:src/../h/../h/riscv.hpp ****     uint64 volatile registerValue;
 176:src/../h/../h/riscv.hpp ****     __asm__ volatile ("mv %[a0], a0" : [a0] "=r" (registerValue));
 177:src/../h/../h/riscv.hpp ****     return registerValue;
 178:src/../h/../h/riscv.hpp **** };
 179:src/../h/../h/riscv.hpp **** inline uint64 Riscv::r_a1(){
 180:src/../h/../h/riscv.hpp ****     uint64 volatile registerValue;
 181:src/../h/../h/riscv.hpp ****     __asm__ volatile ("mv %[a1], a1" : [a1] "=r" (registerValue));
 182:src/../h/../h/riscv.hpp ****     return registerValue;
 183:src/../h/../h/riscv.hpp **** };
 184:src/../h/../h/riscv.hpp **** inline uint64 Riscv::r_a2(){
 185:src/../h/../h/riscv.hpp ****     uint64 volatile registerValue;
 186:src/../h/../h/riscv.hpp ****     __asm__ volatile ("mv %[a2], a2" : [a2] "=r" (registerValue));
 187:src/../h/../h/riscv.hpp ****     return registerValue;
 188:src/../h/../h/riscv.hpp **** };
 189:src/../h/../h/riscv.hpp **** inline uint64 Riscv::r_a3(){
 190:src/../h/../h/riscv.hpp ****     uint64 volatile registerValue;
 191:src/../h/../h/riscv.hpp ****     __asm__ volatile ("mv %[a3], a3" : [a3] "=r" (registerValue));
 192:src/../h/../h/riscv.hpp ****     return registerValue;
 193:src/../h/../h/riscv.hpp **** };
 194:src/../h/../h/riscv.hpp **** inline uint64 Riscv::r_a4(){
GAS LISTING /tmp/cchs6PMV.s 			page 6


 195:src/../h/../h/riscv.hpp ****     uint64 volatile registerValue;
 196:src/../h/../h/riscv.hpp ****     __asm__ volatile ("mv %[a4], a4" : [a4] "=r" (registerValue));
 197:src/../h/../h/riscv.hpp ****     return registerValue;
 198:src/../h/../h/riscv.hpp **** };
 199:src/../h/../h/riscv.hpp **** 
 200:src/../h/../h/riscv.hpp **** inline void Riscv::w_a0(uint64 a0){
 201:src/../h/../h/riscv.hpp ****     __asm__ volatile ("mv a0, %[a0]" :: [a0] "r" (a0));
 202:src/../h/../h/riscv.hpp **** };
 203:src/../h/../h/riscv.hpp **** inline void Riscv::w_a1(uint64 a1){
 204:src/../h/../h/riscv.hpp ****     __asm__ volatile ("mv a1, %[a1]" :: [a1] "r" (a1));
 205:src/../h/../h/riscv.hpp **** };
 206:src/../h/../h/riscv.hpp **** inline void Riscv::w_a2(uint64 a2){
 207:src/../h/../h/riscv.hpp ****     __asm__ volatile ("mv a2, %[a2]" :: [a2] "r" (a2));
 208:src/../h/../h/riscv.hpp **** };
 209:src/../h/../h/riscv.hpp **** inline void Riscv::w_a3(uint64 a3){
 210:src/../h/../h/riscv.hpp ****     __asm__ volatile ("mv a3, %[a3]" :: [a3] "r" (a3));
 211:src/../h/../h/riscv.hpp **** };
 212:src/../h/../h/riscv.hpp **** inline void Riscv::w_a4(uint64 a4){
 213:src/../h/../h/riscv.hpp ****     __asm__ volatile ("mv a4, %[a4]" :: [a4] "r" (a4));
 214:src/../h/../h/riscv.hpp **** };
 215:src/../h/../h/riscv.hpp **** 
 216:src/../h/../h/riscv.hpp **** inline uint64 Riscv::getReturnValue(){
 217:src/../h/../h/riscv.hpp ****     uint64 volatile retValue;
  49              		.loc 2 217 5
 218:src/../h/../h/riscv.hpp ****     __asm__ volatile ("mv %[retValue], a0" : [retValue] "=r" (retValue));
  50              		.loc 2 218 5
  51              		.loc 2 218 73 is_stmt 0
  52              	#APP
  53              	# 218 "src/../h/../h/riscv.hpp" 1
 219              	    return retValue;
  54              		mv a5, a0
  55              	# 0 "" 2
  56              	#NO_APP
  57 0034 2334F4FE 		sd	a5,-24(s0)
  58              		.loc 2 219 5 is_stmt 1
  59              		.loc 2 219 12 is_stmt 0
  60 0038 033584FE 		ld	a0,-24(s0)
  61              	.LBE25:
  62              	.LBE24:
  44:src/syscall_c.cpp **** };
  63              		.loc 1 44 1
  64 003c 83308101 		ld	ra,24(sp)
  65              		.cfi_restore 1
  66 0040 03340101 		ld	s0,16(sp)
  67              		.cfi_restore 8
  68              		.cfi_def_cfa 2, 32
  69 0044 13010102 		addi	sp,sp,32
  70              		.cfi_def_cfa_offset 0
  71 0048 67800000 		jr	ra
  72              		.cfi_endproc
  73              	.LFE49:
  75              		.align	2
  76              		.globl	_Z8mem_freePv
  78              	_Z8mem_freePv:
  79              	.LFB50:
  45:src/syscall_c.cpp **** 
  46:src/syscall_c.cpp **** //  0x02
GAS LISTING /tmp/cchs6PMV.s 			page 7


  47:src/syscall_c.cpp **** 
  48:src/syscall_c.cpp **** int mem_free(void* ptr){
  80              		.loc 1 48 24 is_stmt 1
  81              		.cfi_startproc
  82              	.LVL5:
  83 004c 130101FE 		addi	sp,sp,-32
  84              		.cfi_def_cfa_offset 32
  85 0050 233C1100 		sd	ra,24(sp)
  86 0054 23388100 		sd	s0,16(sp)
  87              		.cfi_offset 1, -8
  88              		.cfi_offset 8, -16
  89 0058 13040102 		addi	s0,sp,32
  90              		.cfi_def_cfa 8, 0
  91 005c 93050500 		mv	a1,a0
  49:src/syscall_c.cpp **** 
  50:src/syscall_c.cpp ****     Riscv::ecallWithOneArgument(0x02, (uint64)ptr);
  92              		.loc 1 50 5
  93              		.loc 1 50 32 is_stmt 0
  94 0060 13052000 		li	a0,2
  95              	.LVL6:
  96 0064 97000000 		call	_ZN5Riscv20ecallWithOneArgumentEmm@plt
  96      E7800000 
  97              	.LVL7:
  51:src/syscall_c.cpp **** 
  52:src/syscall_c.cpp ****     return (int)Riscv::getReturnValue();
  98              		.loc 1 52 5 is_stmt 1
  99              	.LBB26:
 100              	.LBB27:
 217:src/../h/../h/riscv.hpp ****     __asm__ volatile ("mv %[retValue], a0" : [retValue] "=r" (retValue));
 101              		.loc 2 217 5
 218:src/../h/../h/riscv.hpp ****     return retValue;
 102              		.loc 2 218 5
 218:src/../h/../h/riscv.hpp ****     return retValue;
 103              		.loc 2 218 73 is_stmt 0
 104              	#APP
 105              	# 218 "src/../h/../h/riscv.hpp" 1
 106              		mv a5, a0
 107              	# 0 "" 2
 108              	#NO_APP
 109 0070 2334F4FE 		sd	a5,-24(s0)
 110              		.loc 2 219 5 is_stmt 1
 111              		.loc 2 219 12 is_stmt 0
 112 0074 033584FE 		ld	a0,-24(s0)
 113              	.LBE27:
 114              	.LBE26:
  53:src/syscall_c.cpp **** };
 115              		.loc 1 53 1
 116 0078 1B050500 		sext.w	a0,a0
 117 007c 83308101 		ld	ra,24(sp)
 118              		.cfi_restore 1
 119 0080 03340101 		ld	s0,16(sp)
 120              		.cfi_restore 8
 121              		.cfi_def_cfa 2, 32
 122 0084 13010102 		addi	sp,sp,32
 123              		.cfi_def_cfa_offset 0
 124 0088 67800000 		jr	ra
 125              		.cfi_endproc
GAS LISTING /tmp/cchs6PMV.s 			page 8


 126              	.LFE50:
 128              		.align	2
 129              		.globl	_Z13thread_createPP12kernelThreadPFvPvES2_
 131              	_Z13thread_createPP12kernelThreadPFvPvES2_:
 132              	.LFB51:
  54:src/syscall_c.cpp **** 
  55:src/syscall_c.cpp **** //-----THREAD-----//
  56:src/syscall_c.cpp **** 
  57:src/syscall_c.cpp **** //  0x11    Thread constructor with args
  58:src/syscall_c.cpp **** int thread_create(thread_t* handle, void(*start_routine)(void*), void* arg){
 133              		.loc 1 58 76 is_stmt 1
 134              		.cfi_startproc
 135              	.LVL8:
 136 008c 130101FC 		addi	sp,sp,-64
 137              		.cfi_def_cfa_offset 64
 138 0090 233C1102 		sd	ra,56(sp)
 139 0094 23388102 		sd	s0,48(sp)
 140 0098 23349102 		sd	s1,40(sp)
 141 009c 23302103 		sd	s2,32(sp)
 142 00a0 233C3101 		sd	s3,24(sp)
 143              		.cfi_offset 1, -8
 144              		.cfi_offset 8, -16
 145              		.cfi_offset 9, -24
 146              		.cfi_offset 18, -32
 147              		.cfi_offset 19, -40
 148 00a4 13040104 		addi	s0,sp,64
 149              		.cfi_def_cfa 8, 0
 150 00a8 13090500 		mv	s2,a0
 151 00ac 93840500 		mv	s1,a1
 152 00b0 93090600 		mv	s3,a2
  59:src/syscall_c.cpp ****     void *stackPtr = nullptr;
 153              		.loc 1 59 5
 154              	.LVL9:
  60:src/syscall_c.cpp ****     if(start_routine) {
 155              		.loc 1 60 5
 156 00b4 638C0504 		beqz	a1,.L8
  61:src/syscall_c.cpp ****         stackPtr = (uint64*)mem_alloc(DEFAULT_STACK_SIZE * sizeof(uint64));
 157              		.loc 1 61 9
 158              		.loc 1 61 38 is_stmt 0
 159 00b8 37850000 		li	a0,32768
 160              	.LVL10:
 161 00bc 97000000 		call	_Z9mem_allocm
 161      E7800000 
 162              	.LVL11:
 163 00c4 13070500 		mv	a4,a0
 164              	.LVL12:
 165              	.L7:
  62:src/syscall_c.cpp ****     }
  63:src/syscall_c.cpp **** 
  64:src/syscall_c.cpp ****     Riscv::ecallWithFourArguments(0x11, (uint64)handle, (uint64)start_routine, (uint64)arg, (uint64
 166              		.loc 1 64 5 is_stmt 1
 167              		.loc 1 64 34 is_stmt 0
 168 00c8 93860900 		mv	a3,s3
 169 00cc 13860400 		mv	a2,s1
 170 00d0 93050900 		mv	a1,s2
 171 00d4 13051001 		li	a0,17
 172 00d8 97000000 		call	_ZN5Riscv22ecallWithFourArgumentsEmmmmm@plt
GAS LISTING /tmp/cchs6PMV.s 			page 9


 172      E7800000 
 173              	.LVL13:
  65:src/syscall_c.cpp **** 
  66:src/syscall_c.cpp ****     return (int)Riscv::getReturnValue();
 174              		.loc 1 66 5 is_stmt 1
 175              	.LBB28:
 176              	.LBB29:
 217:src/../h/../h/riscv.hpp ****     __asm__ volatile ("mv %[retValue], a0" : [retValue] "=r" (retValue));
 177              		.loc 2 217 5
 218:src/../h/../h/riscv.hpp ****     return retValue;
 178              		.loc 2 218 5
 218:src/../h/../h/riscv.hpp ****     return retValue;
 179              		.loc 2 218 73 is_stmt 0
 180              	#APP
 181              	# 218 "src/../h/../h/riscv.hpp" 1
 182              		mv a5, a0
 183              	# 0 "" 2
 184              	#NO_APP
 185 00e4 2334F4FC 		sd	a5,-56(s0)
 186              		.loc 2 219 5 is_stmt 1
 187              		.loc 2 219 12 is_stmt 0
 188 00e8 033584FC 		ld	a0,-56(s0)
 189              	.LBE29:
 190              	.LBE28:
  67:src/syscall_c.cpp **** };
 191              		.loc 1 67 1
 192 00ec 1B050500 		sext.w	a0,a0
 193 00f0 83308103 		ld	ra,56(sp)
 194              		.cfi_remember_state
 195              		.cfi_restore 1
 196 00f4 03340103 		ld	s0,48(sp)
 197              		.cfi_restore 8
 198              		.cfi_def_cfa 2, 64
 199 00f8 83348102 		ld	s1,40(sp)
 200              		.cfi_restore 9
 201              	.LVL14:
 202 00fc 03390102 		ld	s2,32(sp)
 203              		.cfi_restore 18
 204              	.LVL15:
 205 0100 83398101 		ld	s3,24(sp)
 206              		.cfi_restore 19
 207              	.LVL16:
 208 0104 13010104 		addi	sp,sp,64
 209              		.cfi_def_cfa_offset 0
 210 0108 67800000 		jr	ra
 211              	.LVL17:
 212              	.L8:
 213              		.cfi_restore_state
  59:src/syscall_c.cpp ****     if(start_routine) {
 214              		.loc 1 59 11
 215 010c 13070000 		li	a4,0
 216 0110 6FF09FFB 		j	.L7
 217              		.cfi_endproc
 218              	.LFE51:
 220              		.align	2
 221              		.globl	_Z11thread_exitv
 223              	_Z11thread_exitv:
GAS LISTING /tmp/cchs6PMV.s 			page 10


 224              	.LFB52:
  68:src/syscall_c.cpp **** 
  69:src/syscall_c.cpp **** //  0x12
  70:src/syscall_c.cpp **** int thread_exit(){
 225              		.loc 1 70 18 is_stmt 1
 226              		.cfi_startproc
 227 0114 130101FE 		addi	sp,sp,-32
 228              		.cfi_def_cfa_offset 32
 229 0118 233C1100 		sd	ra,24(sp)
 230 011c 23388100 		sd	s0,16(sp)
 231              		.cfi_offset 1, -8
 232              		.cfi_offset 8, -16
 233 0120 13040102 		addi	s0,sp,32
 234              		.cfi_def_cfa 8, 0
  71:src/syscall_c.cpp ****     Riscv::ecallWithoutArguments(0x12);
 235              		.loc 1 71 5
 236              		.loc 1 71 33 is_stmt 0
 237 0124 13052001 		li	a0,18
 238 0128 97000000 		call	_ZN5Riscv21ecallWithoutArgumentsEm@plt
 238      E7800000 
 239              	.LVL18:
  72:src/syscall_c.cpp ****     return (int)Riscv::getReturnValue();
 240              		.loc 1 72 5 is_stmt 1
 241              	.LBB30:
 242              	.LBB31:
 217:src/../h/../h/riscv.hpp ****     __asm__ volatile ("mv %[retValue], a0" : [retValue] "=r" (retValue));
 243              		.loc 2 217 5
 218:src/../h/../h/riscv.hpp ****     return retValue;
 244              		.loc 2 218 5
 218:src/../h/../h/riscv.hpp ****     return retValue;
 245              		.loc 2 218 73 is_stmt 0
 246              	#APP
 247              	# 218 "src/../h/../h/riscv.hpp" 1
 248              		mv a5, a0
 249              	# 0 "" 2
 250              	#NO_APP
 251 0134 2334F4FE 		sd	a5,-24(s0)
 252              		.loc 2 219 5 is_stmt 1
 253              		.loc 2 219 12 is_stmt 0
 254 0138 033584FE 		ld	a0,-24(s0)
 255              	.LBE31:
 256              	.LBE30:
  73:src/syscall_c.cpp **** };
 257              		.loc 1 73 1
 258 013c 1B050500 		sext.w	a0,a0
 259 0140 83308101 		ld	ra,24(sp)
 260              		.cfi_restore 1
 261 0144 03340101 		ld	s0,16(sp)
 262              		.cfi_restore 8
 263              		.cfi_def_cfa 2, 32
 264 0148 13010102 		addi	sp,sp,32
 265              		.cfi_def_cfa_offset 0
 266 014c 67800000 		jr	ra
 267              		.cfi_endproc
 268              	.LFE52:
 270              		.align	2
 271              		.globl	_Z15thread_dispatchv
GAS LISTING /tmp/cchs6PMV.s 			page 11


 273              	_Z15thread_dispatchv:
 274              	.LFB53:
  74:src/syscall_c.cpp **** 
  75:src/syscall_c.cpp **** //  0x13
  76:src/syscall_c.cpp **** void thread_dispatch(){
 275              		.loc 1 76 23 is_stmt 1
 276              		.cfi_startproc
 277 0150 130101FF 		addi	sp,sp,-16
 278              		.cfi_def_cfa_offset 16
 279 0154 23341100 		sd	ra,8(sp)
 280 0158 23308100 		sd	s0,0(sp)
 281              		.cfi_offset 1, -8
 282              		.cfi_offset 8, -16
 283 015c 13040101 		addi	s0,sp,16
 284              		.cfi_def_cfa 8, 0
  77:src/syscall_c.cpp ****     Riscv::ecallWithoutArguments(0x13);
 285              		.loc 1 77 5
 286              		.loc 1 77 33 is_stmt 0
 287 0160 13053001 		li	a0,19
 288 0164 97000000 		call	_ZN5Riscv21ecallWithoutArgumentsEm@plt
 288      E7800000 
 289              	.LVL19:
  78:src/syscall_c.cpp **** };
 290              		.loc 1 78 1
 291 016c 83308100 		ld	ra,8(sp)
 292              		.cfi_restore 1
 293 0170 03340100 		ld	s0,0(sp)
 294              		.cfi_restore 8
 295              		.cfi_def_cfa 2, 16
 296 0174 13010101 		addi	sp,sp,16
 297              		.cfi_def_cfa_offset 0
 298 0178 67800000 		jr	ra
 299              		.cfi_endproc
 300              	.LFE53:
 302              		.align	2
 303              		.globl	_Z12thread_startP12kernelThread
 305              	_Z12thread_startP12kernelThread:
 306              	.LFB54:
  79:src/syscall_c.cpp **** 
  80:src/syscall_c.cpp **** //  0x14
  81:src/syscall_c.cpp **** int thread_start(kernelThread *handle){
 307              		.loc 1 81 39 is_stmt 1
 308              		.cfi_startproc
 309              	.LVL20:
 310 017c 130101FE 		addi	sp,sp,-32
 311              		.cfi_def_cfa_offset 32
 312 0180 233C1100 		sd	ra,24(sp)
 313 0184 23388100 		sd	s0,16(sp)
 314              		.cfi_offset 1, -8
 315              		.cfi_offset 8, -16
 316 0188 13040102 		addi	s0,sp,32
 317              		.cfi_def_cfa 8, 0
 318 018c 93050500 		mv	a1,a0
  82:src/syscall_c.cpp ****     Riscv::ecallWithOneArgument(0x14,(uint64)handle);
 319              		.loc 1 82 5
 320              		.loc 1 82 32 is_stmt 0
 321 0190 13054001 		li	a0,20
GAS LISTING /tmp/cchs6PMV.s 			page 12


 322              	.LVL21:
 323 0194 97000000 		call	_ZN5Riscv20ecallWithOneArgumentEmm@plt
 323      E7800000 
 324              	.LVL22:
  83:src/syscall_c.cpp ****     return (int)Riscv::getReturnValue();
 325              		.loc 1 83 5 is_stmt 1
 326              	.LBB32:
 327              	.LBB33:
 217:src/../h/../h/riscv.hpp ****     __asm__ volatile ("mv %[retValue], a0" : [retValue] "=r" (retValue));
 328              		.loc 2 217 5
 218:src/../h/../h/riscv.hpp ****     return retValue;
 329              		.loc 2 218 5
 218:src/../h/../h/riscv.hpp ****     return retValue;
 330              		.loc 2 218 73 is_stmt 0
 331              	#APP
 332              	# 218 "src/../h/../h/riscv.hpp" 1
 333              		mv a5, a0
 334              	# 0 "" 2
 335              	#NO_APP
 336 01a0 2334F4FE 		sd	a5,-24(s0)
 337              		.loc 2 219 5 is_stmt 1
 338              		.loc 2 219 12 is_stmt 0
 339 01a4 033584FE 		ld	a0,-24(s0)
 340              	.LBE33:
 341              	.LBE32:
  84:src/syscall_c.cpp **** };
 342              		.loc 1 84 1
 343 01a8 1B050500 		sext.w	a0,a0
 344 01ac 83308101 		ld	ra,24(sp)
 345              		.cfi_restore 1
 346 01b0 03340101 		ld	s0,16(sp)
 347              		.cfi_restore 8
 348              		.cfi_def_cfa 2, 32
 349 01b4 13010102 		addi	sp,sp,32
 350              		.cfi_def_cfa_offset 0
 351 01b8 67800000 		jr	ra
 352              		.cfi_endproc
 353              	.LFE54:
 355              		.align	2
 356              		.globl	_Z8sem_openPP15kernelSemaphorej
 358              	_Z8sem_openPP15kernelSemaphorej:
 359              	.LFB55:
  85:src/syscall_c.cpp **** 
  86:src/syscall_c.cpp **** 
  87:src/syscall_c.cpp **** //-----SEMAPHORE-----//
  88:src/syscall_c.cpp **** 
  89:src/syscall_c.cpp **** //  0x21
  90:src/syscall_c.cpp **** int sem_open(sem_t* handle, unsigned init){
 360              		.loc 1 90 43 is_stmt 1
 361              		.cfi_startproc
 362              	.LVL23:
 363 01bc 130101FE 		addi	sp,sp,-32
 364              		.cfi_def_cfa_offset 32
 365 01c0 233C1100 		sd	ra,24(sp)
 366 01c4 23388100 		sd	s0,16(sp)
 367              		.cfi_offset 1, -8
 368              		.cfi_offset 8, -16
GAS LISTING /tmp/cchs6PMV.s 			page 13


 369 01c8 13040102 		addi	s0,sp,32
 370              		.cfi_def_cfa 8, 0
  91:src/syscall_c.cpp **** 
  92:src/syscall_c.cpp ****     //if(*handle != nullptr) return -1;
  93:src/syscall_c.cpp **** 
  94:src/syscall_c.cpp ****     Riscv::ecallWithTwoArguments(0x21,(uint64)handle,(uint64)init);
 371              		.loc 1 94 5
 372              		.loc 1 94 33 is_stmt 0
 373 01cc 13960502 		slli	a2,a1,32
 374 01d0 13560602 		srli	a2,a2,32
 375 01d4 93050500 		mv	a1,a0
 376              	.LVL24:
 377 01d8 13051002 		li	a0,33
 378              	.LVL25:
 379 01dc 97000000 		call	_ZN5Riscv21ecallWithTwoArgumentsEmmm@plt
 379      E7800000 
 380              	.LVL26:
  95:src/syscall_c.cpp **** 
  96:src/syscall_c.cpp ****     return (int)Riscv::getReturnValue();
 381              		.loc 1 96 5 is_stmt 1
 382              	.LBB34:
 383              	.LBB35:
 217:src/../h/../h/riscv.hpp ****     __asm__ volatile ("mv %[retValue], a0" : [retValue] "=r" (retValue));
 384              		.loc 2 217 5
 218:src/../h/../h/riscv.hpp ****     return retValue;
 385              		.loc 2 218 5
 218:src/../h/../h/riscv.hpp ****     return retValue;
 386              		.loc 2 218 73 is_stmt 0
 387              	#APP
 388              	# 218 "src/../h/../h/riscv.hpp" 1
 389              		mv a5, a0
 390              	# 0 "" 2
 391              	#NO_APP
 392 01e8 2334F4FE 		sd	a5,-24(s0)
 393              		.loc 2 219 5 is_stmt 1
 394              		.loc 2 219 12 is_stmt 0
 395 01ec 033584FE 		ld	a0,-24(s0)
 396              	.LBE35:
 397              	.LBE34:
  97:src/syscall_c.cpp **** 
  98:src/syscall_c.cpp **** };
 398              		.loc 1 98 1
 399 01f0 1B050500 		sext.w	a0,a0
 400 01f4 83308101 		ld	ra,24(sp)
 401              		.cfi_restore 1
 402 01f8 03340101 		ld	s0,16(sp)
 403              		.cfi_restore 8
 404              		.cfi_def_cfa 2, 32
 405 01fc 13010102 		addi	sp,sp,32
 406              		.cfi_def_cfa_offset 0
 407 0200 67800000 		jr	ra
 408              		.cfi_endproc
 409              	.LFE55:
 411              		.align	2
 412              		.globl	_Z9sem_closeP15kernelSemaphore
 414              	_Z9sem_closeP15kernelSemaphore:
 415              	.LFB56:
GAS LISTING /tmp/cchs6PMV.s 			page 14


  99:src/syscall_c.cpp **** 
 100:src/syscall_c.cpp **** //  0x22
 101:src/syscall_c.cpp **** int sem_close(sem_t handle){
 416              		.loc 1 101 28 is_stmt 1
 417              		.cfi_startproc
 418              	.LVL27:
 419 0204 130101FE 		addi	sp,sp,-32
 420              		.cfi_def_cfa_offset 32
 421 0208 233C1100 		sd	ra,24(sp)
 422 020c 23388100 		sd	s0,16(sp)
 423              		.cfi_offset 1, -8
 424              		.cfi_offset 8, -16
 425 0210 13040102 		addi	s0,sp,32
 426              		.cfi_def_cfa 8, 0
 427 0214 93050500 		mv	a1,a0
 102:src/syscall_c.cpp **** 
 103:src/syscall_c.cpp ****     Riscv::ecallWithOneArgument(0x22, (uint64)handle);
 428              		.loc 1 103 5
 429              		.loc 1 103 32 is_stmt 0
 430 0218 13052002 		li	a0,34
 431              	.LVL28:
 432 021c 97000000 		call	_ZN5Riscv20ecallWithOneArgumentEmm@plt
 432      E7800000 
 433              	.LVL29:
 104:src/syscall_c.cpp **** 
 105:src/syscall_c.cpp ****     return (int)Riscv::getReturnValue();
 434              		.loc 1 105 5 is_stmt 1
 435              	.LBB36:
 436              	.LBB37:
 217:src/../h/../h/riscv.hpp ****     __asm__ volatile ("mv %[retValue], a0" : [retValue] "=r" (retValue));
 437              		.loc 2 217 5
 218:src/../h/../h/riscv.hpp ****     return retValue;
 438              		.loc 2 218 5
 218:src/../h/../h/riscv.hpp ****     return retValue;
 439              		.loc 2 218 73 is_stmt 0
 440              	#APP
 441              	# 218 "src/../h/../h/riscv.hpp" 1
 442              		mv a5, a0
 443              	# 0 "" 2
 444              	#NO_APP
 445 0228 2334F4FE 		sd	a5,-24(s0)
 446              		.loc 2 219 5 is_stmt 1
 447              		.loc 2 219 12 is_stmt 0
 448 022c 033584FE 		ld	a0,-24(s0)
 449              	.LBE37:
 450              	.LBE36:
 106:src/syscall_c.cpp **** 
 107:src/syscall_c.cpp **** };
 451              		.loc 1 107 1
 452 0230 1B050500 		sext.w	a0,a0
 453 0234 83308101 		ld	ra,24(sp)
 454              		.cfi_restore 1
 455 0238 03340101 		ld	s0,16(sp)
 456              		.cfi_restore 8
 457              		.cfi_def_cfa 2, 32
 458 023c 13010102 		addi	sp,sp,32
 459              		.cfi_def_cfa_offset 0
GAS LISTING /tmp/cchs6PMV.s 			page 15


 460 0240 67800000 		jr	ra
 461              		.cfi_endproc
 462              	.LFE56:
 464              		.align	2
 465              		.globl	_Z8sem_waitP15kernelSemaphore
 467              	_Z8sem_waitP15kernelSemaphore:
 468              	.LFB57:
 108:src/syscall_c.cpp **** 
 109:src/syscall_c.cpp **** //  0x23
 110:src/syscall_c.cpp **** int sem_wait(sem_t id){
 469              		.loc 1 110 23 is_stmt 1
 470              		.cfi_startproc
 471              	.LVL30:
 111:src/syscall_c.cpp **** 
 112:src/syscall_c.cpp ****     if(id == nullptr) return -1;
 472              		.loc 1 112 5
 473 0244 63020504 		beqz	a0,.L22
 110:src/syscall_c.cpp **** 
 474              		.loc 1 110 23 is_stmt 0
 475 0248 130101FE 		addi	sp,sp,-32
 476              		.cfi_def_cfa_offset 32
 477 024c 233C1100 		sd	ra,24(sp)
 478 0250 23388100 		sd	s0,16(sp)
 479              		.cfi_offset 1, -8
 480              		.cfi_offset 8, -16
 481 0254 13040102 		addi	s0,sp,32
 482              		.cfi_def_cfa 8, 0
 483 0258 93050500 		mv	a1,a0
 113:src/syscall_c.cpp **** 
 114:src/syscall_c.cpp ****     Riscv::ecallWithOneArgument(0x23, (uint64)id);
 484              		.loc 1 114 5 is_stmt 1
 485              		.loc 1 114 32 is_stmt 0
 486 025c 13053002 		li	a0,35
 487              	.LVL31:
 488 0260 97000000 		call	_ZN5Riscv20ecallWithOneArgumentEmm@plt
 488      E7800000 
 489              	.LVL32:
 115:src/syscall_c.cpp **** 
 116:src/syscall_c.cpp ****     return (int)Riscv::getReturnValue();
 490              		.loc 1 116 5 is_stmt 1
 491              	.LBB38:
 492              	.LBB39:
 217:src/../h/../h/riscv.hpp ****     __asm__ volatile ("mv %[retValue], a0" : [retValue] "=r" (retValue));
 493              		.loc 2 217 5
 218:src/../h/../h/riscv.hpp ****     return retValue;
 494              		.loc 2 218 5
 218:src/../h/../h/riscv.hpp ****     return retValue;
 495              		.loc 2 218 73 is_stmt 0
 496              	#APP
 497              	# 218 "src/../h/../h/riscv.hpp" 1
 498              		mv a5, a0
 499              	# 0 "" 2
 500              	#NO_APP
 501 026c 2334F4FE 		sd	a5,-24(s0)
 502              		.loc 2 219 5 is_stmt 1
 503              		.loc 2 219 12 is_stmt 0
 504 0270 033584FE 		ld	a0,-24(s0)
GAS LISTING /tmp/cchs6PMV.s 			page 16


 505              	.LBE39:
 506              	.LBE38:
 507              		.loc 1 116 39
 508 0274 1B050500 		sext.w	a0,a0
 117:src/syscall_c.cpp **** 
 118:src/syscall_c.cpp **** };
 509              		.loc 1 118 1
 510 0278 83308101 		ld	ra,24(sp)
 511              		.cfi_restore 1
 512 027c 03340101 		ld	s0,16(sp)
 513              		.cfi_restore 8
 514              		.cfi_def_cfa 2, 32
 515 0280 13010102 		addi	sp,sp,32
 516              		.cfi_def_cfa_offset 0
 517 0284 67800000 		jr	ra
 518              	.LVL33:
 519              	.L22:
 112:src/syscall_c.cpp **** 
 520              		.loc 1 112 31
 521 0288 1305F0FF 		li	a0,-1
 522              	.LVL34:
 523              		.loc 1 118 1
 524 028c 67800000 		ret
 525              		.cfi_endproc
 526              	.LFE57:
 528              		.align	2
 529              		.globl	_Z10sem_signalP15kernelSemaphore
 531              	_Z10sem_signalP15kernelSemaphore:
 532              	.LFB58:
 119:src/syscall_c.cpp **** 
 120:src/syscall_c.cpp **** //  0x24
 121:src/syscall_c.cpp **** int sem_signal(sem_t id){
 533              		.loc 1 121 25 is_stmt 1
 534              		.cfi_startproc
 535              	.LVL35:
 122:src/syscall_c.cpp **** 
 123:src/syscall_c.cpp ****     if(id == nullptr) return -1;
 536              		.loc 1 123 5
 537 0290 63020504 		beqz	a0,.L29
 121:src/syscall_c.cpp **** 
 538              		.loc 1 121 25 is_stmt 0
 539 0294 130101FE 		addi	sp,sp,-32
 540              		.cfi_def_cfa_offset 32
 541 0298 233C1100 		sd	ra,24(sp)
 542 029c 23388100 		sd	s0,16(sp)
 543              		.cfi_offset 1, -8
 544              		.cfi_offset 8, -16
 545 02a0 13040102 		addi	s0,sp,32
 546              		.cfi_def_cfa 8, 0
 547 02a4 93050500 		mv	a1,a0
 124:src/syscall_c.cpp **** 
 125:src/syscall_c.cpp ****     Riscv::ecallWithOneArgument(0x24,(uint64)id);
 548              		.loc 1 125 5 is_stmt 1
 549              		.loc 1 125 32 is_stmt 0
 550 02a8 13054002 		li	a0,36
 551              	.LVL36:
 552 02ac 97000000 		call	_ZN5Riscv20ecallWithOneArgumentEmm@plt
GAS LISTING /tmp/cchs6PMV.s 			page 17


 552      E7800000 
 553              	.LVL37:
 126:src/syscall_c.cpp **** 
 127:src/syscall_c.cpp ****     return (int)Riscv::getReturnValue();
 554              		.loc 1 127 5 is_stmt 1
 555              	.LBB40:
 556              	.LBB41:
 217:src/../h/../h/riscv.hpp ****     __asm__ volatile ("mv %[retValue], a0" : [retValue] "=r" (retValue));
 557              		.loc 2 217 5
 218:src/../h/../h/riscv.hpp ****     return retValue;
 558              		.loc 2 218 5
 218:src/../h/../h/riscv.hpp ****     return retValue;
 559              		.loc 2 218 73 is_stmt 0
 560              	#APP
 561              	# 218 "src/../h/../h/riscv.hpp" 1
 562              		mv a5, a0
 563              	# 0 "" 2
 564              	#NO_APP
 565 02b8 2334F4FE 		sd	a5,-24(s0)
 566              		.loc 2 219 5 is_stmt 1
 567              		.loc 2 219 12 is_stmt 0
 568 02bc 033584FE 		ld	a0,-24(s0)
 569              	.LBE41:
 570              	.LBE40:
 571              		.loc 1 127 39
 572 02c0 1B050500 		sext.w	a0,a0
 128:src/syscall_c.cpp **** 
 129:src/syscall_c.cpp **** };
 573              		.loc 1 129 1
 574 02c4 83308101 		ld	ra,24(sp)
 575              		.cfi_restore 1
 576 02c8 03340101 		ld	s0,16(sp)
 577              		.cfi_restore 8
 578              		.cfi_def_cfa 2, 32
 579 02cc 13010102 		addi	sp,sp,32
 580              		.cfi_def_cfa_offset 0
 581 02d0 67800000 		jr	ra
 582              	.LVL38:
 583              	.L29:
 123:src/syscall_c.cpp **** 
 584              		.loc 1 123 31
 585 02d4 1305F0FF 		li	a0,-1
 586              	.LVL39:
 587              		.loc 1 129 1
 588 02d8 67800000 		ret
 589              		.cfi_endproc
 590              	.LFE58:
 592              		.align	2
 593              		.globl	_Z11sem_trywaitP15kernelSemaphore
 595              	_Z11sem_trywaitP15kernelSemaphore:
 596              	.LFB59:
 130:src/syscall_c.cpp **** 
 131:src/syscall_c.cpp **** //  0x26
 132:src/syscall_c.cpp **** int sem_trywait(sem_t id){
 597              		.loc 1 132 26 is_stmt 1
 598              		.cfi_startproc
 599              	.LVL40:
GAS LISTING /tmp/cchs6PMV.s 			page 18


 133:src/syscall_c.cpp **** 
 134:src/syscall_c.cpp ****     if(id == nullptr) return -1;
 600              		.loc 1 134 5
 601 02dc 63020504 		beqz	a0,.L36
 132:src/syscall_c.cpp **** 
 602              		.loc 1 132 26 is_stmt 0
 603 02e0 130101FE 		addi	sp,sp,-32
 604              		.cfi_def_cfa_offset 32
 605 02e4 233C1100 		sd	ra,24(sp)
 606 02e8 23388100 		sd	s0,16(sp)
 607              		.cfi_offset 1, -8
 608              		.cfi_offset 8, -16
 609 02ec 13040102 		addi	s0,sp,32
 610              		.cfi_def_cfa 8, 0
 611 02f0 93050500 		mv	a1,a0
 135:src/syscall_c.cpp **** 
 136:src/syscall_c.cpp ****     Riscv::ecallWithOneArgument(0x26, (uint64)id);
 612              		.loc 1 136 5 is_stmt 1
 613              		.loc 1 136 32 is_stmt 0
 614 02f4 13056002 		li	a0,38
 615              	.LVL41:
 616 02f8 97000000 		call	_ZN5Riscv20ecallWithOneArgumentEmm@plt
 616      E7800000 
 617              	.LVL42:
 137:src/syscall_c.cpp **** 
 138:src/syscall_c.cpp ****     return (int)Riscv::getReturnValue();
 618              		.loc 1 138 5 is_stmt 1
 619              	.LBB42:
 620              	.LBB43:
 217:src/../h/../h/riscv.hpp ****     __asm__ volatile ("mv %[retValue], a0" : [retValue] "=r" (retValue));
 621              		.loc 2 217 5
 218:src/../h/../h/riscv.hpp ****     return retValue;
 622              		.loc 2 218 5
 218:src/../h/../h/riscv.hpp ****     return retValue;
 623              		.loc 2 218 73 is_stmt 0
 624              	#APP
 625              	# 218 "src/../h/../h/riscv.hpp" 1
 626              		mv a5, a0
 627              	# 0 "" 2
 628              	#NO_APP
 629 0304 2334F4FE 		sd	a5,-24(s0)
 630              		.loc 2 219 5 is_stmt 1
 631              		.loc 2 219 12 is_stmt 0
 632 0308 033584FE 		ld	a0,-24(s0)
 633              	.LBE43:
 634              	.LBE42:
 635              		.loc 1 138 39
 636 030c 1B050500 		sext.w	a0,a0
 139:src/syscall_c.cpp **** };
 637              		.loc 1 139 1
 638 0310 83308101 		ld	ra,24(sp)
 639              		.cfi_restore 1
 640 0314 03340101 		ld	s0,16(sp)
 641              		.cfi_restore 8
 642              		.cfi_def_cfa 2, 32
 643 0318 13010102 		addi	sp,sp,32
 644              		.cfi_def_cfa_offset 0
GAS LISTING /tmp/cchs6PMV.s 			page 19


 645 031c 67800000 		jr	ra
 646              	.LVL43:
 647              	.L36:
 134:src/syscall_c.cpp **** 
 648              		.loc 1 134 31
 649 0320 1305F0FF 		li	a0,-1
 650              	.LVL44:
 651              		.loc 1 139 1
 652 0324 67800000 		ret
 653              		.cfi_endproc
 654              	.LFE59:
 656              		.align	2
 657              		.globl	_Z4getcv
 659              	_Z4getcv:
 660              	.LFB60:
 140:src/syscall_c.cpp **** 
 141:src/syscall_c.cpp **** //-----CONSOLE-----//
 142:src/syscall_c.cpp **** 
 143:src/syscall_c.cpp **** //  0x41
 144:src/syscall_c.cpp **** char getc(){
 661              		.loc 1 144 12 is_stmt 1
 662              		.cfi_startproc
 663 0328 130101FE 		addi	sp,sp,-32
 664              		.cfi_def_cfa_offset 32
 665 032c 233C1100 		sd	ra,24(sp)
 666 0330 23388100 		sd	s0,16(sp)
 667              		.cfi_offset 1, -8
 668              		.cfi_offset 8, -16
 669 0334 13040102 		addi	s0,sp,32
 670              		.cfi_def_cfa 8, 0
 145:src/syscall_c.cpp ****     Riscv::ecallWithoutArguments(0x41);
 671              		.loc 1 145 5
 672              		.loc 1 145 33 is_stmt 0
 673 0338 13051004 		li	a0,65
 674 033c 97000000 		call	_ZN5Riscv21ecallWithoutArgumentsEm@plt
 674      E7800000 
 675              	.LVL45:
 146:src/syscall_c.cpp ****     return (char)Riscv::getReturnValue();
 676              		.loc 1 146 5 is_stmt 1
 677              	.LBB44:
 678              	.LBB45:
 217:src/../h/../h/riscv.hpp ****     __asm__ volatile ("mv %[retValue], a0" : [retValue] "=r" (retValue));
 679              		.loc 2 217 5
 218:src/../h/../h/riscv.hpp ****     return retValue;
 680              		.loc 2 218 5
 218:src/../h/../h/riscv.hpp ****     return retValue;
 681              		.loc 2 218 73 is_stmt 0
 682              	#APP
 683              	# 218 "src/../h/../h/riscv.hpp" 1
 684              		mv a5, a0
 685              	# 0 "" 2
 686              	#NO_APP
 687 0348 2334F4FE 		sd	a5,-24(s0)
 688              		.loc 2 219 5 is_stmt 1
 689              		.loc 2 219 12 is_stmt 0
 690 034c 033584FE 		ld	a0,-24(s0)
 691              	.LBE45:
GAS LISTING /tmp/cchs6PMV.s 			page 20


 692              	.LBE44:
 147:src/syscall_c.cpp **** };
 693              		.loc 1 147 1
 694 0350 1375F50F 		andi	a0,a0,0xff
 695 0354 83308101 		ld	ra,24(sp)
 696              		.cfi_restore 1
 697 0358 03340101 		ld	s0,16(sp)
 698              		.cfi_restore 8
 699              		.cfi_def_cfa 2, 32
 700 035c 13010102 		addi	sp,sp,32
 701              		.cfi_def_cfa_offset 0
 702 0360 67800000 		jr	ra
 703              		.cfi_endproc
 704              	.LFE60:
 706              		.align	2
 707              		.globl	_Z4putcc
 709              	_Z4putcc:
 710              	.LFB61:
 148:src/syscall_c.cpp **** 
 149:src/syscall_c.cpp **** void putc(char c){
 711              		.loc 1 149 18 is_stmt 1
 712              		.cfi_startproc
 713              	.LVL46:
 714 0364 130101FF 		addi	sp,sp,-16
 715              		.cfi_def_cfa_offset 16
 716 0368 23341100 		sd	ra,8(sp)
 717 036c 23308100 		sd	s0,0(sp)
 718              		.cfi_offset 1, -8
 719              		.cfi_offset 8, -16
 720 0370 13040101 		addi	s0,sp,16
 721              		.cfi_def_cfa 8, 0
 722 0374 93050500 		mv	a1,a0
 150:src/syscall_c.cpp ****     Riscv::ecallWithOneArgument(0x42, (uint64)c);
 723              		.loc 1 150 5
 724              		.loc 1 150 32 is_stmt 0
 725 0378 13052004 		li	a0,66
 726              	.LVL47:
 727 037c 97000000 		call	_ZN5Riscv20ecallWithOneArgumentEmm@plt
 727      E7800000 
 728              	.LVL48:
 151:src/syscall_c.cpp **** };
 729              		.loc 1 151 1
 730 0384 83308100 		ld	ra,8(sp)
 731              		.cfi_restore 1
 732 0388 03340100 		ld	s0,0(sp)
 733              		.cfi_restore 8
 734              		.cfi_def_cfa 2, 16
 735 038c 13010101 		addi	sp,sp,16
 736              		.cfi_def_cfa_offset 0
 737 0390 67800000 		jr	ra
 738              		.cfi_endproc
 739              	.LFE61:
 741              	.Letext0:
 742              		.file 3 "src/../h/../lib/hw.h"
 743              		.file 4 "src/../h/../h/list.hpp"
 744              		.file 5 "src/../h/../h/kernelThread.hpp"
 745              		.file 6 "src/../h/../h/kernelSemaphore.hpp"
GAS LISTING /tmp/cchs6PMV.s 			page 21


 746              		.file 7 "src/../h/syscall_c.hpp"
GAS LISTING /tmp/cchs6PMV.s 			page 22


DEFINED SYMBOLS
                            *ABS*:0000000000000000 syscall_c.cpp
     /tmp/cchs6PMV.s:9      .text:0000000000000000 _Z9mem_allocm
     /tmp/cchs6PMV.s:13     .text:0000000000000000 .L0 
     /tmp/cchs6PMV.s:15     .text:0000000000000000 .L0 
     /tmp/cchs6PMV.s:16     .text:0000000000000004 .L0 
     /tmp/cchs6PMV.s:19     .text:000000000000000c .L0 
     /tmp/cchs6PMV.s:20     .text:000000000000000c .L0 
     /tmp/cchs6PMV.s:22     .text:0000000000000010 .L0 
     /tmp/cchs6PMV.s:24     .text:0000000000000010 .L0 
     /tmp/cchs6PMV.s:25     .text:0000000000000010 .L0 
     /tmp/cchs6PMV.s:27     .text:0000000000000014 .L0 
     /tmp/cchs6PMV.s:30     .text:0000000000000018 .L0 
     /tmp/cchs6PMV.s:31     .text:0000000000000018 .L0 
     /tmp/cchs6PMV.s:34     .text:000000000000001c .L0 
     /tmp/cchs6PMV.s:36     .text:0000000000000020 .L0 
     /tmp/cchs6PMV.s:37     .text:0000000000000020 .L0 
     /tmp/cchs6PMV.s:41     .text:0000000000000024 .L0 
     /tmp/cchs6PMV.s:42     .text:0000000000000024 .L0 
     /tmp/cchs6PMV.s:49     .text:0000000000000030 .L0 
     /tmp/cchs6PMV.s:50     .text:0000000000000030 .L0 
     /tmp/cchs6PMV.s:51     .text:0000000000000030 .L0 
src/../h/../h/riscv.hpp:218    .text:0000000000000030 .L0 
     /tmp/cchs6PMV.s:59     .text:0000000000000038 .L0 
     /tmp/cchs6PMV.s:60     .text:0000000000000038 .L0 
     /tmp/cchs6PMV.s:64     .text:000000000000003c .L0 
     /tmp/cchs6PMV.s:65     .text:0000000000000040 .L0 
     /tmp/cchs6PMV.s:67     .text:0000000000000044 .L0 
     /tmp/cchs6PMV.s:68     .text:0000000000000044 .L0 
     /tmp/cchs6PMV.s:70     .text:0000000000000048 .L0 
     /tmp/cchs6PMV.s:72     .text:000000000000004c .L0 
     /tmp/cchs6PMV.s:78     .text:000000000000004c _Z8mem_freePv
     /tmp/cchs6PMV.s:81     .text:000000000000004c .L0 
     /tmp/cchs6PMV.s:83     .text:000000000000004c .L0 
     /tmp/cchs6PMV.s:84     .text:0000000000000050 .L0 
     /tmp/cchs6PMV.s:87     .text:0000000000000058 .L0 
     /tmp/cchs6PMV.s:88     .text:0000000000000058 .L0 
     /tmp/cchs6PMV.s:90     .text:000000000000005c .L0 
     /tmp/cchs6PMV.s:93     .text:0000000000000060 .L0 
     /tmp/cchs6PMV.s:94     .text:0000000000000060 .L0 
     /tmp/cchs6PMV.s:101    .text:000000000000006c .L0 
     /tmp/cchs6PMV.s:102    .text:000000000000006c .L0 
     /tmp/cchs6PMV.s:103    .text:000000000000006c .L0 
src/../h/../h/riscv.hpp:218    .text:000000000000006c .L0 
     /tmp/cchs6PMV.s:111    .text:0000000000000074 .L0 
     /tmp/cchs6PMV.s:112    .text:0000000000000074 .L0 
     /tmp/cchs6PMV.s:116    .text:0000000000000078 .L0 
     /tmp/cchs6PMV.s:118    .text:0000000000000080 .L0 
     /tmp/cchs6PMV.s:120    .text:0000000000000084 .L0 
     /tmp/cchs6PMV.s:121    .text:0000000000000084 .L0 
     /tmp/cchs6PMV.s:123    .text:0000000000000088 .L0 
     /tmp/cchs6PMV.s:125    .text:000000000000008c .L0 
     /tmp/cchs6PMV.s:131    .text:000000000000008c _Z13thread_createPP12kernelThreadPFvPvES2_
     /tmp/cchs6PMV.s:134    .text:000000000000008c .L0 
     /tmp/cchs6PMV.s:136    .text:000000000000008c .L0 
     /tmp/cchs6PMV.s:137    .text:0000000000000090 .L0 
     /tmp/cchs6PMV.s:143    .text:00000000000000a4 .L0 
GAS LISTING /tmp/cchs6PMV.s 			page 23


     /tmp/cchs6PMV.s:144    .text:00000000000000a4 .L0 
     /tmp/cchs6PMV.s:145    .text:00000000000000a4 .L0 
     /tmp/cchs6PMV.s:146    .text:00000000000000a4 .L0 
     /tmp/cchs6PMV.s:147    .text:00000000000000a4 .L0 
     /tmp/cchs6PMV.s:149    .text:00000000000000a8 .L0 
     /tmp/cchs6PMV.s:155    .text:00000000000000b4 .L0 
     /tmp/cchs6PMV.s:156    .text:00000000000000b4 .L0 
     /tmp/cchs6PMV.s:158    .text:00000000000000b8 .L0 
     /tmp/cchs6PMV.s:159    .text:00000000000000b8 .L0 
     /tmp/cchs6PMV.s:167    .text:00000000000000c8 .L0 
     /tmp/cchs6PMV.s:168    .text:00000000000000c8 .L0 
     /tmp/cchs6PMV.s:177    .text:00000000000000e0 .L0 
     /tmp/cchs6PMV.s:178    .text:00000000000000e0 .L0 
     /tmp/cchs6PMV.s:179    .text:00000000000000e0 .L0 
src/../h/../h/riscv.hpp:218    .text:00000000000000e0 .L0 
     /tmp/cchs6PMV.s:187    .text:00000000000000e8 .L0 
     /tmp/cchs6PMV.s:188    .text:00000000000000e8 .L0 
     /tmp/cchs6PMV.s:192    .text:00000000000000ec .L0 
     /tmp/cchs6PMV.s:194    .text:00000000000000f4 .L0 
     /tmp/cchs6PMV.s:195    .text:00000000000000f4 .L0 
     /tmp/cchs6PMV.s:197    .text:00000000000000f8 .L0 
     /tmp/cchs6PMV.s:198    .text:00000000000000f8 .L0 
     /tmp/cchs6PMV.s:200    .text:00000000000000fc .L0 
     /tmp/cchs6PMV.s:203    .text:0000000000000100 .L0 
     /tmp/cchs6PMV.s:206    .text:0000000000000104 .L0 
     /tmp/cchs6PMV.s:209    .text:0000000000000108 .L0 
     /tmp/cchs6PMV.s:213    .text:000000000000010c .L0 
     /tmp/cchs6PMV.s:215    .text:000000000000010c .L0 
     /tmp/cchs6PMV.s:217    .text:0000000000000114 .L0 
     /tmp/cchs6PMV.s:223    .text:0000000000000114 _Z11thread_exitv
     /tmp/cchs6PMV.s:226    .text:0000000000000114 .L0 
     /tmp/cchs6PMV.s:227    .text:0000000000000114 .L0 
     /tmp/cchs6PMV.s:228    .text:0000000000000118 .L0 
     /tmp/cchs6PMV.s:231    .text:0000000000000120 .L0 
     /tmp/cchs6PMV.s:232    .text:0000000000000120 .L0 
     /tmp/cchs6PMV.s:234    .text:0000000000000124 .L0 
     /tmp/cchs6PMV.s:236    .text:0000000000000124 .L0 
     /tmp/cchs6PMV.s:237    .text:0000000000000124 .L0 
     /tmp/cchs6PMV.s:243    .text:0000000000000130 .L0 
     /tmp/cchs6PMV.s:244    .text:0000000000000130 .L0 
     /tmp/cchs6PMV.s:245    .text:0000000000000130 .L0 
src/../h/../h/riscv.hpp:218    .text:0000000000000130 .L0 
     /tmp/cchs6PMV.s:253    .text:0000000000000138 .L0 
     /tmp/cchs6PMV.s:254    .text:0000000000000138 .L0 
     /tmp/cchs6PMV.s:258    .text:000000000000013c .L0 
     /tmp/cchs6PMV.s:260    .text:0000000000000144 .L0 
     /tmp/cchs6PMV.s:262    .text:0000000000000148 .L0 
     /tmp/cchs6PMV.s:263    .text:0000000000000148 .L0 
     /tmp/cchs6PMV.s:265    .text:000000000000014c .L0 
     /tmp/cchs6PMV.s:267    .text:0000000000000150 .L0 
     /tmp/cchs6PMV.s:273    .text:0000000000000150 _Z15thread_dispatchv
     /tmp/cchs6PMV.s:276    .text:0000000000000150 .L0 
     /tmp/cchs6PMV.s:277    .text:0000000000000150 .L0 
     /tmp/cchs6PMV.s:278    .text:0000000000000154 .L0 
     /tmp/cchs6PMV.s:281    .text:000000000000015c .L0 
     /tmp/cchs6PMV.s:282    .text:000000000000015c .L0 
     /tmp/cchs6PMV.s:284    .text:0000000000000160 .L0 
GAS LISTING /tmp/cchs6PMV.s 			page 24


     /tmp/cchs6PMV.s:286    .text:0000000000000160 .L0 
     /tmp/cchs6PMV.s:287    .text:0000000000000160 .L0 
     /tmp/cchs6PMV.s:291    .text:000000000000016c .L0 
     /tmp/cchs6PMV.s:292    .text:0000000000000170 .L0 
     /tmp/cchs6PMV.s:294    .text:0000000000000174 .L0 
     /tmp/cchs6PMV.s:295    .text:0000000000000174 .L0 
     /tmp/cchs6PMV.s:297    .text:0000000000000178 .L0 
     /tmp/cchs6PMV.s:299    .text:000000000000017c .L0 
     /tmp/cchs6PMV.s:305    .text:000000000000017c _Z12thread_startP12kernelThread
     /tmp/cchs6PMV.s:308    .text:000000000000017c .L0 
     /tmp/cchs6PMV.s:310    .text:000000000000017c .L0 
     /tmp/cchs6PMV.s:311    .text:0000000000000180 .L0 
     /tmp/cchs6PMV.s:314    .text:0000000000000188 .L0 
     /tmp/cchs6PMV.s:315    .text:0000000000000188 .L0 
     /tmp/cchs6PMV.s:317    .text:000000000000018c .L0 
     /tmp/cchs6PMV.s:320    .text:0000000000000190 .L0 
     /tmp/cchs6PMV.s:321    .text:0000000000000190 .L0 
     /tmp/cchs6PMV.s:328    .text:000000000000019c .L0 
     /tmp/cchs6PMV.s:329    .text:000000000000019c .L0 
     /tmp/cchs6PMV.s:330    .text:000000000000019c .L0 
src/../h/../h/riscv.hpp:218    .text:000000000000019c .L0 
     /tmp/cchs6PMV.s:338    .text:00000000000001a4 .L0 
     /tmp/cchs6PMV.s:339    .text:00000000000001a4 .L0 
     /tmp/cchs6PMV.s:343    .text:00000000000001a8 .L0 
     /tmp/cchs6PMV.s:345    .text:00000000000001b0 .L0 
     /tmp/cchs6PMV.s:347    .text:00000000000001b4 .L0 
     /tmp/cchs6PMV.s:348    .text:00000000000001b4 .L0 
     /tmp/cchs6PMV.s:350    .text:00000000000001b8 .L0 
     /tmp/cchs6PMV.s:352    .text:00000000000001bc .L0 
     /tmp/cchs6PMV.s:358    .text:00000000000001bc _Z8sem_openPP15kernelSemaphorej
     /tmp/cchs6PMV.s:361    .text:00000000000001bc .L0 
     /tmp/cchs6PMV.s:363    .text:00000000000001bc .L0 
     /tmp/cchs6PMV.s:364    .text:00000000000001c0 .L0 
     /tmp/cchs6PMV.s:367    .text:00000000000001c8 .L0 
     /tmp/cchs6PMV.s:368    .text:00000000000001c8 .L0 
     /tmp/cchs6PMV.s:370    .text:00000000000001cc .L0 
     /tmp/cchs6PMV.s:372    .text:00000000000001cc .L0 
     /tmp/cchs6PMV.s:373    .text:00000000000001cc .L0 
     /tmp/cchs6PMV.s:384    .text:00000000000001e4 .L0 
     /tmp/cchs6PMV.s:385    .text:00000000000001e4 .L0 
     /tmp/cchs6PMV.s:386    .text:00000000000001e4 .L0 
src/../h/../h/riscv.hpp:218    .text:00000000000001e4 .L0 
     /tmp/cchs6PMV.s:394    .text:00000000000001ec .L0 
     /tmp/cchs6PMV.s:395    .text:00000000000001ec .L0 
     /tmp/cchs6PMV.s:399    .text:00000000000001f0 .L0 
     /tmp/cchs6PMV.s:401    .text:00000000000001f8 .L0 
     /tmp/cchs6PMV.s:403    .text:00000000000001fc .L0 
     /tmp/cchs6PMV.s:404    .text:00000000000001fc .L0 
     /tmp/cchs6PMV.s:406    .text:0000000000000200 .L0 
     /tmp/cchs6PMV.s:408    .text:0000000000000204 .L0 
     /tmp/cchs6PMV.s:414    .text:0000000000000204 _Z9sem_closeP15kernelSemaphore
     /tmp/cchs6PMV.s:417    .text:0000000000000204 .L0 
     /tmp/cchs6PMV.s:419    .text:0000000000000204 .L0 
     /tmp/cchs6PMV.s:420    .text:0000000000000208 .L0 
     /tmp/cchs6PMV.s:423    .text:0000000000000210 .L0 
     /tmp/cchs6PMV.s:424    .text:0000000000000210 .L0 
     /tmp/cchs6PMV.s:426    .text:0000000000000214 .L0 
GAS LISTING /tmp/cchs6PMV.s 			page 25


     /tmp/cchs6PMV.s:429    .text:0000000000000218 .L0 
     /tmp/cchs6PMV.s:430    .text:0000000000000218 .L0 
     /tmp/cchs6PMV.s:437    .text:0000000000000224 .L0 
     /tmp/cchs6PMV.s:438    .text:0000000000000224 .L0 
     /tmp/cchs6PMV.s:439    .text:0000000000000224 .L0 
src/../h/../h/riscv.hpp:218    .text:0000000000000224 .L0 
     /tmp/cchs6PMV.s:447    .text:000000000000022c .L0 
     /tmp/cchs6PMV.s:448    .text:000000000000022c .L0 
     /tmp/cchs6PMV.s:452    .text:0000000000000230 .L0 
     /tmp/cchs6PMV.s:454    .text:0000000000000238 .L0 
     /tmp/cchs6PMV.s:456    .text:000000000000023c .L0 
     /tmp/cchs6PMV.s:457    .text:000000000000023c .L0 
     /tmp/cchs6PMV.s:459    .text:0000000000000240 .L0 
     /tmp/cchs6PMV.s:461    .text:0000000000000244 .L0 
     /tmp/cchs6PMV.s:467    .text:0000000000000244 _Z8sem_waitP15kernelSemaphore
     /tmp/cchs6PMV.s:470    .text:0000000000000244 .L0 
     /tmp/cchs6PMV.s:472    .text:0000000000000244 .L0 
     /tmp/cchs6PMV.s:473    .text:0000000000000244 .L0 
     /tmp/cchs6PMV.s:475    .text:0000000000000248 .L0 
     /tmp/cchs6PMV.s:476    .text:000000000000024c .L0 
     /tmp/cchs6PMV.s:479    .text:0000000000000254 .L0 
     /tmp/cchs6PMV.s:480    .text:0000000000000254 .L0 
     /tmp/cchs6PMV.s:482    .text:0000000000000258 .L0 
     /tmp/cchs6PMV.s:485    .text:000000000000025c .L0 
     /tmp/cchs6PMV.s:486    .text:000000000000025c .L0 
     /tmp/cchs6PMV.s:493    .text:0000000000000268 .L0 
     /tmp/cchs6PMV.s:494    .text:0000000000000268 .L0 
     /tmp/cchs6PMV.s:495    .text:0000000000000268 .L0 
src/../h/../h/riscv.hpp:218    .text:0000000000000268 .L0 
     /tmp/cchs6PMV.s:503    .text:0000000000000270 .L0 
     /tmp/cchs6PMV.s:504    .text:0000000000000270 .L0 
     /tmp/cchs6PMV.s:508    .text:0000000000000274 .L0 
     /tmp/cchs6PMV.s:510    .text:0000000000000278 .L0 
     /tmp/cchs6PMV.s:511    .text:000000000000027c .L0 
     /tmp/cchs6PMV.s:513    .text:0000000000000280 .L0 
     /tmp/cchs6PMV.s:514    .text:0000000000000280 .L0 
     /tmp/cchs6PMV.s:516    .text:0000000000000284 .L0 
     /tmp/cchs6PMV.s:521    .text:0000000000000288 .L0 
     /tmp/cchs6PMV.s:524    .text:000000000000028c .L0 
     /tmp/cchs6PMV.s:525    .text:0000000000000290 .L0 
     /tmp/cchs6PMV.s:531    .text:0000000000000290 _Z10sem_signalP15kernelSemaphore
     /tmp/cchs6PMV.s:534    .text:0000000000000290 .L0 
     /tmp/cchs6PMV.s:536    .text:0000000000000290 .L0 
     /tmp/cchs6PMV.s:537    .text:0000000000000290 .L0 
     /tmp/cchs6PMV.s:539    .text:0000000000000294 .L0 
     /tmp/cchs6PMV.s:540    .text:0000000000000298 .L0 
     /tmp/cchs6PMV.s:543    .text:00000000000002a0 .L0 
     /tmp/cchs6PMV.s:544    .text:00000000000002a0 .L0 
     /tmp/cchs6PMV.s:546    .text:00000000000002a4 .L0 
     /tmp/cchs6PMV.s:549    .text:00000000000002a8 .L0 
     /tmp/cchs6PMV.s:550    .text:00000000000002a8 .L0 
     /tmp/cchs6PMV.s:557    .text:00000000000002b4 .L0 
     /tmp/cchs6PMV.s:558    .text:00000000000002b4 .L0 
     /tmp/cchs6PMV.s:559    .text:00000000000002b4 .L0 
src/../h/../h/riscv.hpp:218    .text:00000000000002b4 .L0 
     /tmp/cchs6PMV.s:567    .text:00000000000002bc .L0 
     /tmp/cchs6PMV.s:568    .text:00000000000002bc .L0 
GAS LISTING /tmp/cchs6PMV.s 			page 26


     /tmp/cchs6PMV.s:572    .text:00000000000002c0 .L0 
     /tmp/cchs6PMV.s:574    .text:00000000000002c4 .L0 
     /tmp/cchs6PMV.s:575    .text:00000000000002c8 .L0 
     /tmp/cchs6PMV.s:577    .text:00000000000002cc .L0 
     /tmp/cchs6PMV.s:578    .text:00000000000002cc .L0 
     /tmp/cchs6PMV.s:580    .text:00000000000002d0 .L0 
     /tmp/cchs6PMV.s:585    .text:00000000000002d4 .L0 
     /tmp/cchs6PMV.s:588    .text:00000000000002d8 .L0 
     /tmp/cchs6PMV.s:589    .text:00000000000002dc .L0 
     /tmp/cchs6PMV.s:595    .text:00000000000002dc _Z11sem_trywaitP15kernelSemaphore
     /tmp/cchs6PMV.s:598    .text:00000000000002dc .L0 
     /tmp/cchs6PMV.s:600    .text:00000000000002dc .L0 
     /tmp/cchs6PMV.s:601    .text:00000000000002dc .L0 
     /tmp/cchs6PMV.s:603    .text:00000000000002e0 .L0 
     /tmp/cchs6PMV.s:604    .text:00000000000002e4 .L0 
     /tmp/cchs6PMV.s:607    .text:00000000000002ec .L0 
     /tmp/cchs6PMV.s:608    .text:00000000000002ec .L0 
     /tmp/cchs6PMV.s:610    .text:00000000000002f0 .L0 
     /tmp/cchs6PMV.s:613    .text:00000000000002f4 .L0 
     /tmp/cchs6PMV.s:614    .text:00000000000002f4 .L0 
     /tmp/cchs6PMV.s:621    .text:0000000000000300 .L0 
     /tmp/cchs6PMV.s:622    .text:0000000000000300 .L0 
     /tmp/cchs6PMV.s:623    .text:0000000000000300 .L0 
src/../h/../h/riscv.hpp:218    .text:0000000000000300 .L0 
     /tmp/cchs6PMV.s:631    .text:0000000000000308 .L0 
     /tmp/cchs6PMV.s:632    .text:0000000000000308 .L0 
     /tmp/cchs6PMV.s:636    .text:000000000000030c .L0 
     /tmp/cchs6PMV.s:638    .text:0000000000000310 .L0 
     /tmp/cchs6PMV.s:639    .text:0000000000000314 .L0 
     /tmp/cchs6PMV.s:641    .text:0000000000000318 .L0 
     /tmp/cchs6PMV.s:642    .text:0000000000000318 .L0 
     /tmp/cchs6PMV.s:644    .text:000000000000031c .L0 
     /tmp/cchs6PMV.s:649    .text:0000000000000320 .L0 
     /tmp/cchs6PMV.s:652    .text:0000000000000324 .L0 
     /tmp/cchs6PMV.s:653    .text:0000000000000328 .L0 
     /tmp/cchs6PMV.s:659    .text:0000000000000328 _Z4getcv
     /tmp/cchs6PMV.s:662    .text:0000000000000328 .L0 
     /tmp/cchs6PMV.s:663    .text:0000000000000328 .L0 
     /tmp/cchs6PMV.s:664    .text:000000000000032c .L0 
     /tmp/cchs6PMV.s:667    .text:0000000000000334 .L0 
     /tmp/cchs6PMV.s:668    .text:0000000000000334 .L0 
     /tmp/cchs6PMV.s:670    .text:0000000000000338 .L0 
     /tmp/cchs6PMV.s:672    .text:0000000000000338 .L0 
     /tmp/cchs6PMV.s:673    .text:0000000000000338 .L0 
     /tmp/cchs6PMV.s:679    .text:0000000000000344 .L0 
     /tmp/cchs6PMV.s:680    .text:0000000000000344 .L0 
     /tmp/cchs6PMV.s:681    .text:0000000000000344 .L0 
src/../h/../h/riscv.hpp:218    .text:0000000000000344 .L0 
     /tmp/cchs6PMV.s:689    .text:000000000000034c .L0 
     /tmp/cchs6PMV.s:690    .text:000000000000034c .L0 
     /tmp/cchs6PMV.s:694    .text:0000000000000350 .L0 
     /tmp/cchs6PMV.s:696    .text:0000000000000358 .L0 
     /tmp/cchs6PMV.s:698    .text:000000000000035c .L0 
     /tmp/cchs6PMV.s:699    .text:000000000000035c .L0 
     /tmp/cchs6PMV.s:701    .text:0000000000000360 .L0 
     /tmp/cchs6PMV.s:703    .text:0000000000000364 .L0 
     /tmp/cchs6PMV.s:709    .text:0000000000000364 _Z4putcc
GAS LISTING /tmp/cchs6PMV.s 			page 27


     /tmp/cchs6PMV.s:712    .text:0000000000000364 .L0 
     /tmp/cchs6PMV.s:714    .text:0000000000000364 .L0 
     /tmp/cchs6PMV.s:715    .text:0000000000000368 .L0 
     /tmp/cchs6PMV.s:718    .text:0000000000000370 .L0 
     /tmp/cchs6PMV.s:719    .text:0000000000000370 .L0 
     /tmp/cchs6PMV.s:721    .text:0000000000000374 .L0 
     /tmp/cchs6PMV.s:724    .text:0000000000000378 .L0 
     /tmp/cchs6PMV.s:725    .text:0000000000000378 .L0 
     /tmp/cchs6PMV.s:730    .text:0000000000000384 .L0 
     /tmp/cchs6PMV.s:731    .text:0000000000000388 .L0 
     /tmp/cchs6PMV.s:733    .text:000000000000038c .L0 
     /tmp/cchs6PMV.s:734    .text:000000000000038c .L0 
     /tmp/cchs6PMV.s:736    .text:0000000000000390 .L0 
     /tmp/cchs6PMV.s:738    .text:0000000000000394 .L0 
     /tmp/cchs6PMV.s:747    .text:0000000000000394 .L0 
     /tmp/cchs6PMV.s:39     .text:0000000000000024 .L2
     /tmp/cchs6PMV.s:212    .text:000000000000010c .L8
     /tmp/cchs6PMV.s:165    .text:00000000000000c8 .L7
     /tmp/cchs6PMV.s:519    .text:0000000000000288 .L22
     /tmp/cchs6PMV.s:583    .text:00000000000002d4 .L29
     /tmp/cchs6PMV.s:647    .text:0000000000000320 .L36
     /tmp/cchs6PMV.s:2460   .debug_abbrev:0000000000000000 .Ldebug_abbrev0
     /tmp/cchs6PMV.s:3849   .debug_str:0000000000000bc7 .LASF191
     /tmp/cchs6PMV.s:3693   .debug_str:0000000000000612 .LASF192
     /tmp/cchs6PMV.s:3545   .debug_str:00000000000000d5 .LASF193
     /tmp/cchs6PMV.s:5      .text:0000000000000000 .Ltext0
     /tmp/cchs6PMV.s:741    .text:0000000000000394 .Letext0
     /tmp/cchs6PMV.s:3523   .debug_line:0000000000000000 .Ldebug_line0
     /tmp/cchs6PMV.s:3635   .debug_str:0000000000000468 .LASF0
     /tmp/cchs6PMV.s:3669   .debug_str:0000000000000535 .LASF1
     /tmp/cchs6PMV.s:3783   .debug_str:0000000000000996 .LASF2
     /tmp/cchs6PMV.s:3793   .debug_str:0000000000000a22 .LASF4
     /tmp/cchs6PMV.s:3641   .debug_str:0000000000000480 .LASF3
     /tmp/cchs6PMV.s:3529   .debug_str:0000000000000016 .LASF5
     /tmp/cchs6PMV.s:3737   .debug_str:00000000000007a0 .LASF6
     /tmp/cchs6PMV.s:3657   .debug_str:00000000000004cd .LASF7
     /tmp/cchs6PMV.s:3605   .debug_str:0000000000000357 .LASF8
     /tmp/cchs6PMV.s:3615   .debug_str:00000000000003bb .LASF9
     /tmp/cchs6PMV.s:3569   .debug_str:000000000000020f .LASF10
     /tmp/cchs6PMV.s:3597   .debug_str:000000000000030a .LASF11
     /tmp/cchs6PMV.s:3577   .debug_str:0000000000000247 .LASF12
     /tmp/cchs6PMV.s:3567   .debug_str:00000000000001ff .LASF13
     /tmp/cchs6PMV.s:3825   .debug_str:0000000000000b23 .LASF14
     /tmp/cchs6PMV.s:3593   .debug_str:00000000000002c9 .LASF15
     /tmp/cchs6PMV.s:3815   .debug_str:0000000000000ae3 .LASF16
     /tmp/cchs6PMV.s:3685   .debug_str:00000000000005d7 .LASF17
     /tmp/cchs6PMV.s:3843   .debug_str:0000000000000b9c .LASF34
     /tmp/cchs6PMV.s:3873   .debug_str:0000000000000d52 .LASF194
     /tmp/cchs6PMV.s:3819   .debug_str:0000000000000b0a .LASF18
     /tmp/cchs6PMV.s:3713   .debug_str:00000000000006dc .LASF19
     /tmp/cchs6PMV.s:3707   .debug_str:00000000000006c7 .LASF20
     /tmp/cchs6PMV.s:3859   .debug_str:0000000000000cee .LASF22
     /tmp/cchs6PMV.s:3663   .debug_str:0000000000000511 .LASF21
     /tmp/cchs6PMV.s:3785   .debug_str:00000000000009a4 .LASF23
     /tmp/cchs6PMV.s:3681   .debug_str:00000000000005a7 .LASF24
     /tmp/cchs6PMV.s:3769   .debug_str:00000000000008f4 .LASF25
     /tmp/cchs6PMV.s:3731   .debug_str:0000000000000774 .LASF26
GAS LISTING /tmp/cchs6PMV.s 			page 28


     /tmp/cchs6PMV.s:3683   .debug_str:00000000000005af .LASF28
     /tmp/cchs6PMV.s:3925   .debug_str:0000000000000eb6 .LASF27
     /tmp/cchs6PMV.s:3687   .debug_str:00000000000005dc .LASF29
     /tmp/cchs6PMV.s:3805   .debug_str:0000000000000aac .LASF30
     /tmp/cchs6PMV.s:3903   .debug_str:0000000000000de0 .LASF31
     /tmp/cchs6PMV.s:3763   .debug_str:00000000000008b9 .LASF32
     /tmp/cchs6PMV.s:3759   .debug_str:000000000000088b .LASF33
     /tmp/cchs6PMV.s:3729   .debug_str:0000000000000767 .LASF35
     /tmp/cchs6PMV.s:3831   .debug_str:0000000000000b4d .LASF195
     /tmp/cchs6PMV.s:3845   .debug_str:0000000000000baf .LASF196
     /tmp/cchs6PMV.s:3823   .debug_str:0000000000000b16 .LASF36
     /tmp/cchs6PMV.s:3717   .debug_str:00000000000006e8 .LASF37
     /tmp/cchs6PMV.s:3723   .debug_str:000000000000073a .LASF197
     /tmp/cchs6PMV.s:3809   .debug_str:0000000000000ac6 .LASF105
     /tmp/cchs6PMV.s:3623   .debug_str:00000000000003f4 .LASF107
     /tmp/cchs6PMV.s:3807   .debug_str:0000000000000ab7 .LASF40
     /tmp/cchs6PMV.s:3533   .debug_str:0000000000000028 .LASF42
     /tmp/cchs6PMV.s:3841   .debug_str:0000000000000b90 .LASF38
     /tmp/cchs6PMV.s:3915   .debug_str:0000000000000e55 .LASF39
     /tmp/cchs6PMV.s:3673   .debug_str:0000000000000567 .LASF41
     /tmp/cchs6PMV.s:3721   .debug_str:0000000000000720 .LASF43
     /tmp/cchs6PMV.s:3667   .debug_str:0000000000000528 .LASF44
     /tmp/cchs6PMV.s:3581   .debug_str:0000000000000265 .LASF45
     /tmp/cchs6PMV.s:3611   .debug_str:000000000000038a .LASF46
     /tmp/cchs6PMV.s:3633   .debug_str:0000000000000452 .LASF47
     /tmp/cchs6PMV.s:3579   .debug_str:0000000000000257 .LASF68
     /tmp/cchs6PMV.s:3557   .debug_str:000000000000017d .LASF69
     /tmp/cchs6PMV.s:3563   .debug_str:00000000000001d3 .LASF48
     /tmp/cchs6PMV.s:3613   .debug_str:0000000000000398 .LASF49
     /tmp/cchs6PMV.s:3871   .debug_str:0000000000000d4a .LASF50
     /tmp/cchs6PMV.s:3705   .debug_str:00000000000006aa .LASF51
     /tmp/cchs6PMV.s:3547   .debug_str:0000000000000132 .LASF52
     /tmp/cchs6PMV.s:3881   .debug_str:0000000000000d77 .LASF53
     /tmp/cchs6PMV.s:3901   .debug_str:0000000000000dd6 .LASF54
     /tmp/cchs6PMV.s:3671   .debug_str:0000000000000548 .LASF55
     /tmp/cchs6PMV.s:3837   .debug_str:0000000000000b80 .LASF56
     /tmp/cchs6PMV.s:3835   .debug_str:0000000000000b60 .LASF57
     /tmp/cchs6PMV.s:3833   .debug_str:0000000000000b55 .LASF58
     /tmp/cchs6PMV.s:3797   .debug_str:0000000000000a3c .LASF59
     /tmp/cchs6PMV.s:3555   .debug_str:0000000000000171 .LASF60
     /tmp/cchs6PMV.s:3679   .debug_str:0000000000000586 .LASF61
     /tmp/cchs6PMV.s:3861   .debug_str:0000000000000d0b .LASF73
     /tmp/cchs6PMV.s:3919   .debug_str:0000000000000e87 .LASF62
     /tmp/cchs6PMV.s:3527   .debug_str:0000000000000011 .LASF63
     /tmp/cchs6PMV.s:3733   .debug_str:0000000000000780 .LASF64
     /tmp/cchs6PMV.s:3575   .debug_str:0000000000000241 .LASF65
     /tmp/cchs6PMV.s:3719   .debug_str:0000000000000718 .LASF66
     /tmp/cchs6PMV.s:3813   .debug_str:0000000000000ada .LASF67
     /tmp/cchs6PMV.s:3703   .debug_str:000000000000068a .LASF70
     /tmp/cchs6PMV.s:3741   .debug_str:00000000000007c0 .LASF71
     /tmp/cchs6PMV.s:3573   .debug_str:0000000000000228 .LASF72
     /tmp/cchs6PMV.s:3629   .debug_str:0000000000000431 .LASF74
     /tmp/cchs6PMV.s:3743   .debug_str:00000000000007d0 .LASF75
     /tmp/cchs6PMV.s:3779   .debug_str:000000000000096e .LASF76
     /tmp/cchs6PMV.s:3541   .debug_str:0000000000000086 .LASF77
     /tmp/cchs6PMV.s:3889   .debug_str:0000000000000dad .LASF78
     /tmp/cchs6PMV.s:3697   .debug_str:0000000000000640 .LASF79
GAS LISTING /tmp/cchs6PMV.s 			page 29


     /tmp/cchs6PMV.s:3585   .debug_str:000000000000029a .LASF80
     /tmp/cchs6PMV.s:3695   .debug_str:0000000000000624 .LASF81
     /tmp/cchs6PMV.s:3829   .debug_str:0000000000000b46 .LASF82
     /tmp/cchs6PMV.s:3565   .debug_str:00000000000001e1 .LASF83
     /tmp/cchs6PMV.s:3675   .debug_str:000000000000056d .LASF84
     /tmp/cchs6PMV.s:3603   .debug_str:0000000000000338 .LASF85
     /tmp/cchs6PMV.s:3885   .debug_str:0000000000000d9d .LASF86
     /tmp/cchs6PMV.s:3847   .debug_str:0000000000000bb7 .LASF87
     /tmp/cchs6PMV.s:3609   .debug_str:000000000000036d .LASF88
     /tmp/cchs6PMV.s:3755   .debug_str:0000000000000855 .LASF89
     /tmp/cchs6PMV.s:3661   .debug_str:00000000000004f3 .LASF90
     /tmp/cchs6PMV.s:3625   .debug_str:0000000000000414 .LASF91
     /tmp/cchs6PMV.s:3631   .debug_str:000000000000043a .LASF92
     /tmp/cchs6PMV.s:3727   .debug_str:0000000000000750 .LASF93
     /tmp/cchs6PMV.s:3551   .debug_str:0000000000000140 .LASF94
     /tmp/cchs6PMV.s:3781   .debug_str:000000000000097e .LASF95
     /tmp/cchs6PMV.s:3851   .debug_str:0000000000000c8b .LASF96
     /tmp/cchs6PMV.s:3801   .debug_str:0000000000000a81 .LASF97
     /tmp/cchs6PMV.s:3757   .debug_str:0000000000000866 .LASF98
     /tmp/cchs6PMV.s:3803   .debug_str:0000000000000a97 .LASF99
     /tmp/cchs6PMV.s:3773   .debug_str:0000000000000923 .LASF100
     /tmp/cchs6PMV.s:3735   .debug_str:000000000000078a .LASF101
     /tmp/cchs6PMV.s:3543   .debug_str:00000000000000b2 .LASF102
     /tmp/cchs6PMV.s:3827   .debug_str:0000000000000b2f .LASF103
     /tmp/cchs6PMV.s:3799   .debug_str:0000000000000a5d .LASF104
     /tmp/cchs6PMV.s:3891   .debug_str:0000000000000dbd .LASF106
     /tmp/cchs6PMV.s:3725   .debug_str:000000000000073f .LASF108
     /tmp/cchs6PMV.s:3645   .debug_str:00000000000004a3 .LASF109
     /tmp/cchs6PMV.s:3677   .debug_str:0000000000000575 .LASF110
     /tmp/cchs6PMV.s:3893   .debug_str:0000000000000dc2 .LASF111
     /tmp/cchs6PMV.s:3643   .debug_str:0000000000000492 .LASF112
     /tmp/cchs6PMV.s:3647   .debug_str:00000000000004a8 .LASF113
     /tmp/cchs6PMV.s:3559   .debug_str:00000000000001af .LASF114
     /tmp/cchs6PMV.s:3895   .debug_str:0000000000000dc7 .LASF115
     /tmp/cchs6PMV.s:3583   .debug_str:0000000000000289 .LASF116
     /tmp/cchs6PMV.s:3649   .debug_str:00000000000004ad .LASF117
     /tmp/cchs6PMV.s:3655   .debug_str:00000000000004bc .LASF118
     /tmp/cchs6PMV.s:3897   .debug_str:0000000000000dcc .LASF119
     /tmp/cchs6PMV.s:3923   .debug_str:0000000000000ea5 .LASF120
     /tmp/cchs6PMV.s:3651   .debug_str:00000000000004b2 .LASF121
     /tmp/cchs6PMV.s:3587   .debug_str:000000000000029f .LASF122
     /tmp/cchs6PMV.s:3899   .debug_str:0000000000000dd1 .LASF123
     /tmp/cchs6PMV.s:3857   .debug_str:0000000000000cdd .LASF124
     /tmp/cchs6PMV.s:3653   .debug_str:00000000000004b7 .LASF125
     /tmp/cchs6PMV.s:3525   .debug_str:0000000000000000 .LASF126
     /tmp/cchs6PMV.s:3917   .debug_str:0000000000000e78 .LASF127
     /tmp/cchs6PMV.s:3911   .debug_str:0000000000000e2b .LASF128
     /tmp/cchs6PMV.s:3753   .debug_str:000000000000084e .LASF129
     /tmp/cchs6PMV.s:3561   .debug_str:00000000000001c0 .LASF130
     /tmp/cchs6PMV.s:3715   .debug_str:00000000000006e1 .LASF131
     /tmp/cchs6PMV.s:3659   .debug_str:00000000000004e0 .LASF132
     /tmp/cchs6PMV.s:3887   .debug_str:0000000000000da3 .LASF133
     /tmp/cchs6PMV.s:3909   .debug_str:0000000000000e15 .LASF134
     /tmp/cchs6PMV.s:3571   .debug_str:000000000000021e .LASF135
     /tmp/cchs6PMV.s:3699   .debug_str:000000000000066a .LASF136
     /tmp/cchs6PMV.s:3709   .debug_str:00000000000006cc .LASF137
     /tmp/cchs6PMV.s:3853   .debug_str:0000000000000cb3 .LASF138
GAS LISTING /tmp/cchs6PMV.s 			page 30


     /tmp/cchs6PMV.s:3711   .debug_str:00000000000006d4 .LASF139
     /tmp/cchs6PMV.s:3601   .debug_str:0000000000000324 .LASF140
     /tmp/cchs6PMV.s:3869   .debug_str:0000000000000d41 .LASF141
     /tmp/cchs6PMV.s:3863   .debug_str:0000000000000d13 .LASF142
     /tmp/cchs6PMV.s:3589   .debug_str:00000000000002b0 .LASF143
     /tmp/cchs6PMV.s:3627   .debug_str:000000000000041f .LASF144
     /tmp/cchs6PMV.s:3639   .debug_str:000000000000047a .LASF145
     /tmp/cchs6PMV.s:3621   .debug_str:00000000000003e2 .LASF146
     /tmp/cchs6PMV.s:3821   .debug_str:0000000000000b0f .LASF147
     /tmp/cchs6PMV.s:3795   .debug_str:0000000000000a29 .LASF148
     /tmp/cchs6PMV.s:3905   .debug_str:0000000000000e07 .LASF149
     /tmp/cchs6PMV.s:3591   .debug_str:00000000000002b6 .LASF150
     /tmp/cchs6PMV.s:3531   .debug_str:000000000000001d .LASF151
     /tmp/cchs6PMV.s:3787   .debug_str:00000000000009cb .LASF152
     /tmp/cchs6PMV.s:3599   .debug_str:0000000000000319 .LASF153
     /tmp/cchs6PMV.s:3921   .debug_str:0000000000000e8d .LASF154
     /tmp/cchs6PMV.s:3865   .debug_str:0000000000000d28 .LASF155
     /tmp/cchs6PMV.s:3539   .debug_str:000000000000006a .LASF156
     /tmp/cchs6PMV.s:3855   .debug_str:0000000000000cc7 .LASF198
     /tmp/cchs6PMV.s:3745   .debug_str:00000000000007df .LASF199
     /tmp/cchs6PMV.s:3879   .debug_str:0000000000000d6e .LASF157
     /tmp/cchs6PMV.s:3607   .debug_str:0000000000000367 .LASF158
     /tmp/cchs6PMV.s:3691   .debug_str:000000000000060d .LASF159
     /tmp/cchs6PMV.s:3537   .debug_str:0000000000000061 .LASF160
     /tmp/cchs6PMV.s:710    .text:0000000000000364 .LFB61
     /tmp/cchs6PMV.s:739    .text:0000000000000394 .LFE61
     /tmp/cchs6PMV.s:3219   .debug_loc:0000000000000000 .LLST14
     /tmp/cchs6PMV.s:728    .text:0000000000000384 .LVL48
     /tmp/cchs6PMV.s:3839   .debug_str:0000000000000b8b .LASF161
     /tmp/cchs6PMV.s:3637   .debug_str:0000000000000475 .LASF162
     /tmp/cchs6PMV.s:3877   .debug_str:0000000000000d65 .LASF164
     /tmp/cchs6PMV.s:660    .text:0000000000000328 .LFB60
     /tmp/cchs6PMV.s:704    .text:0000000000000364 .LFE60
     /tmp/cchs6PMV.s:677    .text:0000000000000344 .LBB44
     /tmp/cchs6PMV.s:692    .text:0000000000000350 .LBE44
     /tmp/cchs6PMV.s:675    .text:0000000000000344 .LVL45
     /tmp/cchs6PMV.s:3747   .debug_str:0000000000000802 .LASF163
     /tmp/cchs6PMV.s:3765   .debug_str:00000000000008c2 .LASF165
     /tmp/cchs6PMV.s:596    .text:00000000000002dc .LFB59
     /tmp/cchs6PMV.s:654    .text:0000000000000328 .LFE59
     /tmp/cchs6PMV.s:3233   .debug_loc:0000000000000039 .LLST13
     /tmp/cchs6PMV.s:619    .text:0000000000000300 .LBB42
     /tmp/cchs6PMV.s:634    .text:000000000000030c .LBE42
     /tmp/cchs6PMV.s:617    .text:0000000000000300 .LVL42
     /tmp/cchs6PMV.s:3619   .debug_str:00000000000003d7 .LASF166
     /tmp/cchs6PMV.s:3789   .debug_str:00000000000009e3 .LASF167
     /tmp/cchs6PMV.s:532    .text:0000000000000290 .LFB58
     /tmp/cchs6PMV.s:590    .text:00000000000002dc .LFE58
     /tmp/cchs6PMV.s:3262   .debug_loc:00000000000000ae .LLST12
     /tmp/cchs6PMV.s:555    .text:00000000000002b4 .LBB40
     /tmp/cchs6PMV.s:570    .text:00000000000002c0 .LBE40
     /tmp/cchs6PMV.s:553    .text:00000000000002b4 .LVL37
     /tmp/cchs6PMV.s:3811   .debug_str:0000000000000ad1 .LASF168
     /tmp/cchs6PMV.s:3791   .debug_str:0000000000000a04 .LASF169
     /tmp/cchs6PMV.s:468    .text:0000000000000244 .LFB57
     /tmp/cchs6PMV.s:526    .text:0000000000000290 .LFE57
     /tmp/cchs6PMV.s:3291   .debug_loc:0000000000000123 .LLST11
GAS LISTING /tmp/cchs6PMV.s 			page 31


     /tmp/cchs6PMV.s:491    .text:0000000000000268 .LBB38
     /tmp/cchs6PMV.s:506    .text:0000000000000274 .LBE38
     /tmp/cchs6PMV.s:489    .text:0000000000000268 .LVL32
     /tmp/cchs6PMV.s:3761   .debug_str:00000000000008af .LASF170
     /tmp/cchs6PMV.s:3775   .debug_str:0000000000000946 .LASF171
     /tmp/cchs6PMV.s:415    .text:0000000000000204 .LFB56
     /tmp/cchs6PMV.s:462    .text:0000000000000244 .LFE56
     /tmp/cchs6PMV.s:3907   .debug_str:0000000000000e0e .LASF172
     /tmp/cchs6PMV.s:3320   .debug_loc:0000000000000198 .LLST10
     /tmp/cchs6PMV.s:435    .text:0000000000000224 .LBB36
     /tmp/cchs6PMV.s:450    .text:0000000000000230 .LBE36
     /tmp/cchs6PMV.s:433    .text:0000000000000224 .LVL29
     /tmp/cchs6PMV.s:3771   .debug_str:000000000000091a .LASF173
     /tmp/cchs6PMV.s:3751   .debug_str:000000000000082e .LASF174
     /tmp/cchs6PMV.s:359    .text:00000000000001bc .LFB55
     /tmp/cchs6PMV.s:409    .text:0000000000000204 .LFE55
     /tmp/cchs6PMV.s:3338   .debug_loc:00000000000001e4 .LLST8
     /tmp/cchs6PMV.s:3549   .debug_str:000000000000013b .LASF175
     /tmp/cchs6PMV.s:3356   .debug_loc:0000000000000230 .LLST9
     /tmp/cchs6PMV.s:382    .text:00000000000001e4 .LBB34
     /tmp/cchs6PMV.s:397    .text:00000000000001f0 .LBE34
     /tmp/cchs6PMV.s:380    .text:00000000000001e4 .LVL26
     /tmp/cchs6PMV.s:3739   .debug_str:00000000000007b3 .LASF176
     /tmp/cchs6PMV.s:3749   .debug_str:000000000000080e .LASF177
     /tmp/cchs6PMV.s:306    .text:000000000000017c .LFB54
     /tmp/cchs6PMV.s:353    .text:00000000000001bc .LFE54
     /tmp/cchs6PMV.s:3370   .debug_loc:0000000000000269 .LLST7
     /tmp/cchs6PMV.s:326    .text:000000000000019c .LBB32
     /tmp/cchs6PMV.s:341    .text:00000000000001a8 .LBE32
     /tmp/cchs6PMV.s:324    .text:000000000000019c .LVL22
     /tmp/cchs6PMV.s:3767   .debug_str:00000000000008e4 .LASF178
     /tmp/cchs6PMV.s:3535   .debug_str:000000000000004c .LASF179
     /tmp/cchs6PMV.s:274    .text:0000000000000150 .LFB53
     /tmp/cchs6PMV.s:300    .text:000000000000017c .LFE53
     /tmp/cchs6PMV.s:289    .text:000000000000016c .LVL19
     /tmp/cchs6PMV.s:3689   .debug_str:0000000000000601 .LASF180
     /tmp/cchs6PMV.s:3817   .debug_str:0000000000000af9 .LASF181
     /tmp/cchs6PMV.s:224    .text:0000000000000114 .LFB52
     /tmp/cchs6PMV.s:268    .text:0000000000000150 .LFE52
     /tmp/cchs6PMV.s:241    .text:0000000000000130 .LBB30
     /tmp/cchs6PMV.s:256    .text:000000000000013c .LBE30
     /tmp/cchs6PMV.s:239    .text:0000000000000130 .LVL18
     /tmp/cchs6PMV.s:3875   .debug_str:0000000000000d57 .LASF182
     /tmp/cchs6PMV.s:3595   .debug_str:00000000000002df .LASF183
     /tmp/cchs6PMV.s:132    .text:000000000000008c .LFB51
     /tmp/cchs6PMV.s:218    .text:0000000000000114 .LFE51
     /tmp/cchs6PMV.s:3388   .debug_loc:00000000000002b5 .LLST3
     /tmp/cchs6PMV.s:3665   .debug_str:000000000000051a .LASF184
     /tmp/cchs6PMV.s:3410   .debug_loc:0000000000000314 .LLST4
     /tmp/cchs6PMV.s:3432   .debug_loc:0000000000000373 .LLST5
     /tmp/cchs6PMV.s:3777   .debug_str:0000000000000965 .LASF185
     /tmp/cchs6PMV.s:3454   .debug_loc:00000000000003d2 .LLST6
     /tmp/cchs6PMV.s:175    .text:00000000000000e0 .LBB28
     /tmp/cchs6PMV.s:190    .text:00000000000000ec .LBE28
     /tmp/cchs6PMV.s:162    .text:00000000000000c4 .LVL11
     /tmp/cchs6PMV.s:173    .text:00000000000000e0 .LVL13
     /tmp/cchs6PMV.s:3883   .debug_str:0000000000000d94 .LASF186
GAS LISTING /tmp/cchs6PMV.s 			page 32


     /tmp/cchs6PMV.s:3913   .debug_str:0000000000000e47 .LASF187
     /tmp/cchs6PMV.s:79     .text:000000000000004c .LFB50
     /tmp/cchs6PMV.s:126    .text:000000000000008c .LFE50
     /tmp/cchs6PMV.s:3471   .debug_loc:000000000000041d .LLST2
     /tmp/cchs6PMV.s:99     .text:000000000000006c .LBB26
     /tmp/cchs6PMV.s:114    .text:0000000000000078 .LBE26
     /tmp/cchs6PMV.s:97     .text:000000000000006c .LVL7
     /tmp/cchs6PMV.s:3701   .debug_str:0000000000000680 .LASF188
     /tmp/cchs6PMV.s:3617   .debug_str:00000000000003c9 .LASF189
     /tmp/cchs6PMV.s:10     .text:0000000000000000 .LFB49
     /tmp/cchs6PMV.s:73     .text:000000000000004c .LFE49
     /tmp/cchs6PMV.s:3489   .debug_loc:0000000000000469 .LLST0
     /tmp/cchs6PMV.s:3867   .debug_str:0000000000000d37 .LASF190
     /tmp/cchs6PMV.s:3503   .debug_loc:00000000000004a2 .LLST1
     /tmp/cchs6PMV.s:46     .text:0000000000000030 .LBB24
     /tmp/cchs6PMV.s:62     .text:000000000000003c .LBE24
     /tmp/cchs6PMV.s:44     .text:0000000000000030 .LVL4
     /tmp/cchs6PMV.s:3553   .debug_str:0000000000000168 .LASF200
     /tmp/cchs6PMV.s:713    .text:0000000000000364 .LVL46
     /tmp/cchs6PMV.s:726    .text:000000000000037c .LVL47
     /tmp/cchs6PMV.s:599    .text:00000000000002dc .LVL40
     /tmp/cchs6PMV.s:615    .text:00000000000002f8 .LVL41
     /tmp/cchs6PMV.s:646    .text:0000000000000320 .LVL43
     /tmp/cchs6PMV.s:650    .text:0000000000000324 .LVL44
     /tmp/cchs6PMV.s:535    .text:0000000000000290 .LVL35
     /tmp/cchs6PMV.s:551    .text:00000000000002ac .LVL36
     /tmp/cchs6PMV.s:582    .text:00000000000002d4 .LVL38
     /tmp/cchs6PMV.s:586    .text:00000000000002d8 .LVL39
     /tmp/cchs6PMV.s:471    .text:0000000000000244 .LVL30
     /tmp/cchs6PMV.s:487    .text:0000000000000260 .LVL31
     /tmp/cchs6PMV.s:518    .text:0000000000000288 .LVL33
     /tmp/cchs6PMV.s:522    .text:000000000000028c .LVL34
     /tmp/cchs6PMV.s:418    .text:0000000000000204 .LVL27
     /tmp/cchs6PMV.s:431    .text:000000000000021c .LVL28
     /tmp/cchs6PMV.s:362    .text:00000000000001bc .LVL23
     /tmp/cchs6PMV.s:378    .text:00000000000001dc .LVL25
     /tmp/cchs6PMV.s:376    .text:00000000000001d8 .LVL24
     /tmp/cchs6PMV.s:309    .text:000000000000017c .LVL20
     /tmp/cchs6PMV.s:322    .text:0000000000000194 .LVL21
     /tmp/cchs6PMV.s:135    .text:000000000000008c .LVL8
     /tmp/cchs6PMV.s:160    .text:00000000000000bc .LVL10
     /tmp/cchs6PMV.s:204    .text:0000000000000100 .LVL15
     /tmp/cchs6PMV.s:211    .text:000000000000010c .LVL17
     /tmp/cchs6PMV.s:201    .text:00000000000000fc .LVL14
     /tmp/cchs6PMV.s:207    .text:0000000000000104 .LVL16
     /tmp/cchs6PMV.s:154    .text:00000000000000b4 .LVL9
     /tmp/cchs6PMV.s:164    .text:00000000000000c8 .LVL12
     /tmp/cchs6PMV.s:82     .text:000000000000004c .LVL5
     /tmp/cchs6PMV.s:95     .text:0000000000000064 .LVL6
     /tmp/cchs6PMV.s:14     .text:0000000000000000 .LVL0
     /tmp/cchs6PMV.s:32     .text:000000000000001c .LVL2
     /tmp/cchs6PMV.s:28     .text:0000000000000018 .LVL1
     /tmp/cchs6PMV.s:748    .debug_info:0000000000000000 .Ldebug_info0

UNDEFINED SYMBOLS
_ZN5Riscv20ecallWithOneArgumentEmm
_ZN5Riscv22ecallWithFourArgumentsEmmmmm
GAS LISTING /tmp/cchs6PMV.s 			page 33


_ZN5Riscv21ecallWithoutArgumentsEm
_ZN5Riscv21ecallWithTwoArgumentsEmmm
