GAS LISTING /tmp/cc5ujtPP.s 			page 1


   1              		.file	"syscall_cpp.cpp"
   2              		.option pic
   3              		.option norelax
   4              		.text
   5              	.Ltext0:
   6              		.section	.text._ZN6Thread3runEv,"axG",@progbits,_ZN6Thread3runEv,comdat
   7              		.align	2
   8              		.weak	_ZN6Thread3runEv
  10              	_ZN6Thread3runEv:
  11              	.LFB49:
  12              		.file 1 "src/../h/syscall_cpp.hpp"
   1:src/../h/syscall_cpp.hpp **** #ifndef SYSCALL_CPP
   2:src/../h/syscall_cpp.hpp **** #define SYSCALL_CPP
   3:src/../h/syscall_cpp.hpp **** 
   4:src/../h/syscall_cpp.hpp **** #include "syscall_c.hpp"
   5:src/../h/syscall_cpp.hpp **** /*
   6:src/../h/syscall_cpp.hpp **** void* ::operator new (size_t);
   7:src/../h/syscall_cpp.hpp **** void ::operator delete(void*);
   8:src/../h/syscall_cpp.hpp **** */
   9:src/../h/syscall_cpp.hpp **** 
  10:src/../h/syscall_cpp.hpp **** void *operator new(size_t);
  11:src/../h/syscall_cpp.hpp **** void *operator new[](size_t);
  12:src/../h/syscall_cpp.hpp **** 
  13:src/../h/syscall_cpp.hpp **** void operator delete(void*) noexcept;
  14:src/../h/syscall_cpp.hpp **** void operator delete[](void*) noexcept;
  15:src/../h/syscall_cpp.hpp **** 
  16:src/../h/syscall_cpp.hpp **** 
  17:src/../h/syscall_cpp.hpp **** class Thread{
  18:src/../h/syscall_cpp.hpp **** public:
  19:src/../h/syscall_cpp.hpp ****     Thread(void (*body)(void*), void *arg);
  20:src/../h/syscall_cpp.hpp ****     virtual ~Thread();
  21:src/../h/syscall_cpp.hpp **** 
  22:src/../h/syscall_cpp.hpp ****     int start();
  23:src/../h/syscall_cpp.hpp **** 
  24:src/../h/syscall_cpp.hpp ****     static void dispatch();
  25:src/../h/syscall_cpp.hpp **** 
  26:src/../h/syscall_cpp.hpp ****     //function wrapper
  27:src/../h/syscall_cpp.hpp ****     static void functionWrapper(void *object);
  28:src/../h/syscall_cpp.hpp **** 
  29:src/../h/syscall_cpp.hpp ****     //ASYNCH
  30:src/../h/syscall_cpp.hpp ****     //static int sleep(time_t);
  31:src/../h/syscall_cpp.hpp **** 
  32:src/../h/syscall_cpp.hpp **** protected:
  33:src/../h/syscall_cpp.hpp ****     Thread();
  34:src/../h/syscall_cpp.hpp ****     virtual void run(){}
  13              		.loc 1 34 18
  14              		.cfi_startproc
  15              	.LVL0:
  16 0000 130101FF 		addi	sp,sp,-16
  17              		.cfi_def_cfa_offset 16
  18 0004 23348100 		sd	s0,8(sp)
  19              		.cfi_offset 8, -8
  20 0008 13040101 		addi	s0,sp,16
  21              		.cfi_def_cfa 8, 0
  22              		.loc 1 34 24 is_stmt 0
  23 000c 03348100 		ld	s0,8(sp)
  24              		.cfi_restore 8
GAS LISTING /tmp/cc5ujtPP.s 			page 2


  25              		.cfi_def_cfa 2, 16
  26 0010 13010101 		addi	sp,sp,16
  27              		.cfi_def_cfa_offset 0
  28 0014 67800000 		jr	ra
  29              		.cfi_endproc
  30              	.LFE49:
  32              		.text
  33              		.align	2
  34              		.globl	_ZN6Thread15functionWrapperEPv
  36              	_ZN6Thread15functionWrapperEPv:
  37              	.LFB63:
  38              		.file 2 "src/syscall_cpp.cpp"
   1:src/syscall_cpp.cpp **** //
   2:src/syscall_cpp.cpp **** // Created by os on 5/30/24.
   3:src/syscall_cpp.cpp **** //
   4:src/syscall_cpp.cpp **** #include "../h/syscall_cpp.hpp"
   5:src/syscall_cpp.cpp **** 
   6:src/syscall_cpp.cpp **** using size_t = decltype(sizeof (0));
   7:src/syscall_cpp.cpp **** 
   8:src/syscall_cpp.cpp **** //  ---DELETE---
   9:src/syscall_cpp.cpp **** void operator delete(void *p) noexcept {
  10:src/syscall_cpp.cpp ****     mem_free(p);
  11:src/syscall_cpp.cpp **** };
  12:src/syscall_cpp.cpp **** 
  13:src/syscall_cpp.cpp **** void operator delete[](void *p) noexcept {
  14:src/syscall_cpp.cpp ****     mem_free(p);
  15:src/syscall_cpp.cpp **** };
  16:src/syscall_cpp.cpp **** //  ---NEW---
  17:src/syscall_cpp.cpp **** void *operator new(size_t n){
  18:src/syscall_cpp.cpp ****     return mem_alloc(n);
  19:src/syscall_cpp.cpp **** };
  20:src/syscall_cpp.cpp **** 
  21:src/syscall_cpp.cpp **** void *operator new[](size_t n){
  22:src/syscall_cpp.cpp ****     return mem_alloc(n);
  23:src/syscall_cpp.cpp **** }
  24:src/syscall_cpp.cpp **** 
  25:src/syscall_cpp.cpp **** //  ---THREAD---
  26:src/syscall_cpp.cpp **** 
  27:src/syscall_cpp.cpp **** Thread::Thread(void (*body)(void*), void *arg) {
  28:src/syscall_cpp.cpp ****     myHandle = nullptr;
  29:src/syscall_cpp.cpp ****     thread_create(&myHandle, body, arg);    //mozda u thread_start
  30:src/syscall_cpp.cpp **** };
  31:src/syscall_cpp.cpp **** 
  32:src/syscall_cpp.cpp **** void Thread::dispatch() {
  33:src/syscall_cpp.cpp ****     thread_dispatch();
  34:src/syscall_cpp.cpp **** };
  35:src/syscall_cpp.cpp **** 
  36:src/syscall_cpp.cpp **** Thread::~Thread(){
  37:src/syscall_cpp.cpp ****     //thread_exit();
  38:src/syscall_cpp.cpp ****     delete myHandle;
  39:src/syscall_cpp.cpp **** };
  40:src/syscall_cpp.cpp **** 
  41:src/syscall_cpp.cpp **** int Thread::start() {
  42:src/syscall_cpp.cpp ****     thread_start(this->myHandle); //potentially create
  43:src/syscall_cpp.cpp ****     return 0;
  44:src/syscall_cpp.cpp **** };
  45:src/syscall_cpp.cpp **** 
GAS LISTING /tmp/cc5ujtPP.s 			page 3


  46:src/syscall_cpp.cpp **** void Thread::functionWrapper(void *thread) {
  39              		.loc 2 46 44 is_stmt 1
  40              		.cfi_startproc
  41              	.LVL1:
  47:src/syscall_cpp.cpp ****     if(thread != nullptr){
  42              		.loc 2 47 5
  43 0000 63080502 		beqz	a0,.L6
  46:src/syscall_cpp.cpp ****     if(thread != nullptr){
  44              		.loc 2 46 44 is_stmt 0
  45 0004 130101FF 		addi	sp,sp,-16
  46              		.cfi_def_cfa_offset 16
  47 0008 23341100 		sd	ra,8(sp)
  48 000c 23308100 		sd	s0,0(sp)
  49              		.cfi_offset 1, -8
  50              		.cfi_offset 8, -16
  51 0010 13040101 		addi	s0,sp,16
  52              		.cfi_def_cfa 8, 0
  48:src/syscall_cpp.cpp ****         ((Thread*)thread)->run();
  53              		.loc 2 48 9 is_stmt 1
  54              		.loc 2 48 32 is_stmt 0
  55 0014 83370500 		ld	a5,0(a0)
  56 0018 83B70701 		ld	a5,16(a5)
  57              		.loc 2 48 31
  58 001c E7800700 		jalr	a5
  59              	.LVL2:
  49:src/syscall_cpp.cpp ****     }
  50:src/syscall_cpp.cpp **** };
  60              		.loc 2 50 1
  61 0020 83308100 		ld	ra,8(sp)
  62              		.cfi_restore 1
  63 0024 03340100 		ld	s0,0(sp)
  64              		.cfi_restore 8
  65              		.cfi_def_cfa 2, 16
  66 0028 13010101 		addi	sp,sp,16
  67              		.cfi_def_cfa_offset 0
  68 002c 67800000 		jr	ra
  69              	.LVL3:
  70              	.L6:
  71 0030 67800000 		ret
  72              		.cfi_endproc
  73              	.LFE63:
  75              		.align	2
  76              		.globl	_ZN9SemaphoreD2Ev
  78              	_ZN9SemaphoreD2Ev:
  79              	.LFB71:
  51:src/syscall_cpp.cpp **** 
  52:src/syscall_cpp.cpp **** Thread::Thread() {
  53:src/syscall_cpp.cpp ****     myHandle = nullptr;
  54:src/syscall_cpp.cpp ****     thread_create(&myHandle, &functionWrapper, (void *)this);
  55:src/syscall_cpp.cpp **** };
  56:src/syscall_cpp.cpp **** 
  57:src/syscall_cpp.cpp **** Semaphore::Semaphore(unsigned init){
  58:src/syscall_cpp.cpp ****     this->myHandle = nullptr;
  59:src/syscall_cpp.cpp ****     sem_open(&myHandle, init);
  60:src/syscall_cpp.cpp **** };
  61:src/syscall_cpp.cpp **** 
  62:src/syscall_cpp.cpp **** Semaphore::~Semaphore(){
GAS LISTING /tmp/cc5ujtPP.s 			page 4


  80              		.loc 2 62 1 is_stmt 1
  81              		.cfi_startproc
  82              		.cfi_personality 0x9b,DW.ref.__gxx_personality_v0
  83              		.cfi_lsda 0x1b,.LLSDA71
  84              	.LVL4:
  85 0034 130101FF 		addi	sp,sp,-16
  86              		.cfi_def_cfa_offset 16
  87 0038 23341100 		sd	ra,8(sp)
  88 003c 23308100 		sd	s0,0(sp)
  89              		.cfi_offset 1, -8
  90              		.cfi_offset 8, -16
  91 0040 13040101 		addi	s0,sp,16
  92              		.cfi_def_cfa 8, 0
  93              	.LBB6:
  94              		.loc 2 62 23 is_stmt 0
  95 0044 97070000 		lla	a5,_ZTV9Semaphore+16
  95      93870700 
  96 004c 2330F500 		sd	a5,0(a0)
  63:src/syscall_cpp.cpp ****     sem_close(this->myHandle);
  97              		.loc 2 63 5 is_stmt 1
  98              		.loc 2 63 14 is_stmt 0
  99 0050 03358500 		ld	a0,8(a0)
 100              	.LVL5:
 101 0054 97000000 		call	_Z9sem_closeP15kernelSemaphore@plt
 101      E7800000 
 102              	.LVL6:
 103              	.LBE6:
  64:src/syscall_cpp.cpp **** };
 104              		.loc 2 64 1
 105 005c 83308100 		ld	ra,8(sp)
 106              		.cfi_restore 1
 107 0060 03340100 		ld	s0,0(sp)
 108              		.cfi_restore 8
 109              		.cfi_def_cfa 2, 16
 110 0064 13010101 		addi	sp,sp,16
 111              		.cfi_def_cfa_offset 0
 112 0068 67800000 		jr	ra
 113              		.cfi_endproc
 114              	.LFE71:
 115              		.globl	__gxx_personality_v0
 116              		.section	.gcc_except_table,"a",@progbits
 117              	.LLSDA71:
 118 0000 FF       		.byte	0xff
 119 0001 FF       		.byte	0xff
 120 0002 03       		.byte	0x3
 121 0003 00       		.byte	0
 122              		.text
 124              		.globl	_ZN9SemaphoreD1Ev
 125              		.set	_ZN9SemaphoreD1Ev,_ZN9SemaphoreD2Ev
 126              		.align	2
 127              		.globl	_ZdlPv
 129              	_ZdlPv:
 130              	.LFB50:
   9:src/syscall_cpp.cpp ****     mem_free(p);
 131              		.loc 2 9 40 is_stmt 1
 132              		.cfi_startproc
 133              		.cfi_personality 0x9b,DW.ref.__gxx_personality_v0
GAS LISTING /tmp/cc5ujtPP.s 			page 5


 134              		.cfi_lsda 0x1b,.LLSDA50
 135              	.LVL7:
 136 006c 130101FF 		addi	sp,sp,-16
 137              		.cfi_def_cfa_offset 16
 138 0070 23341100 		sd	ra,8(sp)
 139 0074 23308100 		sd	s0,0(sp)
 140              		.cfi_offset 1, -8
 141              		.cfi_offset 8, -16
 142 0078 13040101 		addi	s0,sp,16
 143              		.cfi_def_cfa 8, 0
  10:src/syscall_cpp.cpp **** };
 144              		.loc 2 10 5
  10:src/syscall_cpp.cpp **** };
 145              		.loc 2 10 13 is_stmt 0
 146 007c 97000000 		call	_Z8mem_freePv@plt
 146      E7800000 
 147              	.LVL8:
  11:src/syscall_cpp.cpp **** 
 148              		.loc 2 11 1
 149 0084 83308100 		ld	ra,8(sp)
 150              		.cfi_restore 1
 151 0088 03340100 		ld	s0,0(sp)
 152              		.cfi_restore 8
 153              		.cfi_def_cfa 2, 16
 154 008c 13010101 		addi	sp,sp,16
 155              		.cfi_def_cfa_offset 0
 156 0090 67800000 		jr	ra
 157              		.cfi_endproc
 158              	.LFE50:
 159              		.section	.gcc_except_table
 160              	.LLSDA50:
 161 0004 FF       		.byte	0xff
 162 0005 FF       		.byte	0xff
 163 0006 03       		.byte	0x3
 164 0007 00       		.byte	0
 165              		.text
 167              		.align	2
 168              		.globl	_ZN6ThreadD2Ev
 170              	_ZN6ThreadD2Ev:
 171              	.LFB59:
  36:src/syscall_cpp.cpp ****     //thread_exit();
 172              		.loc 2 36 1 is_stmt 1
 173              		.cfi_startproc
 174              	.LVL9:
 175 0094 130101FE 		addi	sp,sp,-32
 176              		.cfi_def_cfa_offset 32
 177 0098 233C1100 		sd	ra,24(sp)
 178 009c 23388100 		sd	s0,16(sp)
 179 00a0 23349100 		sd	s1,8(sp)
 180              		.cfi_offset 1, -8
 181              		.cfi_offset 8, -16
 182              		.cfi_offset 9, -24
 183 00a4 13040102 		addi	s0,sp,32
 184              		.cfi_def_cfa 8, 0
 185              	.LBB7:
  36:src/syscall_cpp.cpp ****     //thread_exit();
 186              		.loc 2 36 17 is_stmt 0
GAS LISTING /tmp/cc5ujtPP.s 			page 6


 187 00a8 97070000 		lla	a5,_ZTV6Thread+16
 187      93870700 
 188 00b0 2330F500 		sd	a5,0(a0)
  38:src/syscall_cpp.cpp **** };
 189              		.loc 2 38 5 is_stmt 1
  38:src/syscall_cpp.cpp **** };
 190              		.loc 2 38 12 is_stmt 0
 191 00b4 83348500 		ld	s1,8(a0)
  38:src/syscall_cpp.cpp **** };
 192              		.loc 2 38 20
 193 00b8 63800402 		beqz	s1,.L13
 194              	.LVL10:
 195              	.LBB8:
 196              	.LBB9:
 197              		.file 3 "src/../h/../h/kernelThread.hpp"
   1:src/../h/../h/kernelThread.hpp **** #ifndef KERNEL_THREAD_HPP
   2:src/../h/../h/kernelThread.hpp **** #define KERNEL_THREAD_HPP
   3:src/../h/../h/kernelThread.hpp **** 
   4:src/../h/../h/kernelThread.hpp **** #include "../lib/mem.h"
   5:src/../h/../h/kernelThread.hpp **** //#include "riscv.hpp"
   6:src/../h/../h/kernelThread.hpp **** #include "scheduler.hpp"
   7:src/../h/../h/kernelThread.hpp **** #include "syscall_c.hpp"
   8:src/../h/../h/kernelThread.hpp **** 
   9:src/../h/../h/kernelThread.hpp **** class kernelThread{
  10:src/../h/../h/kernelThread.hpp **** 
  11:src/../h/../h/kernelThread.hpp **** public:
  12:src/../h/../h/kernelThread.hpp ****     static kernelThread *running;   //current running
  13:src/../h/../h/kernelThread.hpp **** 
  14:src/../h/../h/kernelThread.hpp ****     using Body = void(*)(void *);     //possible void(*)(void *)
  15:src/../h/../h/kernelThread.hpp **** 
  16:src/../h/../h/kernelThread.hpp ****     static int createThread(
  17:src/../h/../h/kernelThread.hpp ****                 kernelThread **handle,
  18:src/../h/../h/kernelThread.hpp ****                 Body body,
  19:src/../h/../h/kernelThread.hpp ****                 void *args,
  20:src/../h/../h/kernelThread.hpp ****                 uint64 *stack);
  21:src/../h/../h/kernelThread.hpp ****     static int threadExit();
  22:src/../h/../h/kernelThread.hpp ****     static void dispatchThread();
  23:src/../h/../h/kernelThread.hpp ****     static int startThread(kernelThread *handle);
  24:src/../h/../h/kernelThread.hpp ****     static void yield();
  25:src/../h/../h/kernelThread.hpp ****     static int deleteThread(kernelThread *handle);
  26:src/../h/../h/kernelThread.hpp **** 
  27:src/../h/../h/kernelThread.hpp ****     ~kernelThread(){
  28:src/../h/../h/kernelThread.hpp ****         //MemoryAllocator::getInstance().mem_free(stack);
  29:src/../h/../h/kernelThread.hpp ****         //mem_free(stack);
  30:src/../h/../h/kernelThread.hpp ****         delete stack;
 198              		.loc 3 30 9 is_stmt 1
 199              		.loc 3 30 16 is_stmt 0
 200 00bc 03B50401 		ld	a0,16(s1)
 201              	.LVL11:
 202              		.loc 3 30 21
 203 00c0 63060500 		beqz	a0,.L15
 204              		.loc 3 30 16
 205 00c4 97000000 		call	_ZdlPv
 205      E7800000 
 206              	.LVL12:
 207              	.L15:
 208              	.LBE9:
GAS LISTING /tmp/cc5ujtPP.s 			page 7


 209              	.LBE8:
  38:src/syscall_cpp.cpp **** };
 210              		.loc 2 38 12
 211 00cc 13850400 		mv	a0,s1
 212 00d0 97000000 		call	_ZdlPv
 212      E7800000 
 213              	.LVL13:
 214              	.L13:
 215              	.LBE7:
  39:src/syscall_cpp.cpp **** 
 216              		.loc 2 39 1
 217 00d8 83308101 		ld	ra,24(sp)
 218              		.cfi_restore 1
 219 00dc 03340101 		ld	s0,16(sp)
 220              		.cfi_restore 8
 221              		.cfi_def_cfa 2, 32
 222 00e0 83348100 		ld	s1,8(sp)
 223              		.cfi_restore 9
 224 00e4 13010102 		addi	sp,sp,32
 225              		.cfi_def_cfa_offset 0
 226 00e8 67800000 		jr	ra
 227              		.cfi_endproc
 228              	.LFE59:
 230              		.globl	_ZN6ThreadD1Ev
 231              		.set	_ZN6ThreadD1Ev,_ZN6ThreadD2Ev
 232              		.align	2
 233              		.globl	_ZN6ThreadD0Ev
 235              	_ZN6ThreadD0Ev:
 236              	.LFB61:
  36:src/syscall_cpp.cpp ****     //thread_exit();
 237              		.loc 2 36 1 is_stmt 1
 238              		.cfi_startproc
 239              	.LVL14:
 240 00ec 130101FE 		addi	sp,sp,-32
 241              		.cfi_def_cfa_offset 32
 242 00f0 233C1100 		sd	ra,24(sp)
 243 00f4 23388100 		sd	s0,16(sp)
 244 00f8 23349100 		sd	s1,8(sp)
 245              		.cfi_offset 1, -8
 246              		.cfi_offset 8, -16
 247              		.cfi_offset 9, -24
 248 00fc 13040102 		addi	s0,sp,32
 249              		.cfi_def_cfa 8, 0
 250 0100 93040500 		mv	s1,a0
  39:src/syscall_cpp.cpp **** 
 251              		.loc 2 39 1 is_stmt 0
 252 0104 97000000 		call	_ZN6ThreadD1Ev
 252      E7800000 
 253              	.LVL15:
 254 010c 13850400 		mv	a0,s1
 255 0110 97000000 		call	_ZdlPv
 255      E7800000 
 256              	.LVL16:
 257 0118 83308101 		ld	ra,24(sp)
 258              		.cfi_restore 1
 259 011c 03340101 		ld	s0,16(sp)
 260              		.cfi_restore 8
GAS LISTING /tmp/cc5ujtPP.s 			page 8


 261              		.cfi_def_cfa 2, 32
 262 0120 83348100 		ld	s1,8(sp)
 263              		.cfi_restore 9
 264              	.LVL17:
 265 0124 13010102 		addi	sp,sp,32
 266              		.cfi_def_cfa_offset 0
 267 0128 67800000 		jr	ra
 268              		.cfi_endproc
 269              	.LFE61:
 271              		.align	2
 272              		.globl	_ZN9SemaphoreD0Ev
 274              	_ZN9SemaphoreD0Ev:
 275              	.LFB73:
  62:src/syscall_cpp.cpp ****     sem_close(this->myHandle);
 276              		.loc 2 62 1 is_stmt 1
 277              		.cfi_startproc
 278              	.LVL18:
 279 012c 130101FE 		addi	sp,sp,-32
 280              		.cfi_def_cfa_offset 32
 281 0130 233C1100 		sd	ra,24(sp)
 282 0134 23388100 		sd	s0,16(sp)
 283 0138 23349100 		sd	s1,8(sp)
 284              		.cfi_offset 1, -8
 285              		.cfi_offset 8, -16
 286              		.cfi_offset 9, -24
 287 013c 13040102 		addi	s0,sp,32
 288              		.cfi_def_cfa 8, 0
 289 0140 93040500 		mv	s1,a0
 290              		.loc 2 64 1 is_stmt 0
 291 0144 97000000 		call	_ZN9SemaphoreD1Ev
 291      E7800000 
 292              	.LVL19:
 293 014c 13850400 		mv	a0,s1
 294 0150 97000000 		call	_ZdlPv
 294      E7800000 
 295              	.LVL20:
 296 0158 83308101 		ld	ra,24(sp)
 297              		.cfi_restore 1
 298 015c 03340101 		ld	s0,16(sp)
 299              		.cfi_restore 8
 300              		.cfi_def_cfa 2, 32
 301 0160 83348100 		ld	s1,8(sp)
 302              		.cfi_restore 9
 303              	.LVL21:
 304 0164 13010102 		addi	sp,sp,32
 305              		.cfi_def_cfa_offset 0
 306 0168 67800000 		jr	ra
 307              		.cfi_endproc
 308              	.LFE73:
 310              		.align	2
 311              		.globl	_ZdaPv
 313              	_ZdaPv:
 314              	.LFB51:
  13:src/syscall_cpp.cpp ****     mem_free(p);
 315              		.loc 2 13 42 is_stmt 1
 316              		.cfi_startproc
 317              		.cfi_personality 0x9b,DW.ref.__gxx_personality_v0
GAS LISTING /tmp/cc5ujtPP.s 			page 9


 318              		.cfi_lsda 0x1b,.LLSDA51
 319              	.LVL22:
 320 016c 130101FF 		addi	sp,sp,-16
 321              		.cfi_def_cfa_offset 16
 322 0170 23341100 		sd	ra,8(sp)
 323 0174 23308100 		sd	s0,0(sp)
 324              		.cfi_offset 1, -8
 325              		.cfi_offset 8, -16
 326 0178 13040101 		addi	s0,sp,16
 327              		.cfi_def_cfa 8, 0
  14:src/syscall_cpp.cpp **** };
 328              		.loc 2 14 5
  14:src/syscall_cpp.cpp **** };
 329              		.loc 2 14 13 is_stmt 0
 330 017c 97000000 		call	_Z8mem_freePv@plt
 330      E7800000 
 331              	.LVL23:
  15:src/syscall_cpp.cpp **** //  ---NEW---
 332              		.loc 2 15 1
 333 0184 83308100 		ld	ra,8(sp)
 334              		.cfi_restore 1
 335 0188 03340100 		ld	s0,0(sp)
 336              		.cfi_restore 8
 337              		.cfi_def_cfa 2, 16
 338 018c 13010101 		addi	sp,sp,16
 339              		.cfi_def_cfa_offset 0
 340 0190 67800000 		jr	ra
 341              		.cfi_endproc
 342              	.LFE51:
 343              		.section	.gcc_except_table
 344              	.LLSDA51:
 345 0008 FF       		.byte	0xff
 346 0009 FF       		.byte	0xff
 347 000a 03       		.byte	0x3
 348 000b 00       		.byte	0
 349              		.text
 351              		.align	2
 352              		.globl	_Znwm
 354              	_Znwm:
 355              	.LFB52:
  17:src/syscall_cpp.cpp ****     return mem_alloc(n);
 356              		.loc 2 17 29 is_stmt 1
 357              		.cfi_startproc
 358              	.LVL24:
 359 0194 130101FF 		addi	sp,sp,-16
 360              		.cfi_def_cfa_offset 16
 361 0198 23341100 		sd	ra,8(sp)
 362 019c 23308100 		sd	s0,0(sp)
 363              		.cfi_offset 1, -8
 364              		.cfi_offset 8, -16
 365 01a0 13040101 		addi	s0,sp,16
 366              		.cfi_def_cfa 8, 0
  18:src/syscall_cpp.cpp **** };
 367              		.loc 2 18 5
  18:src/syscall_cpp.cpp **** };
 368              		.loc 2 18 21 is_stmt 0
 369 01a4 97000000 		call	_Z9mem_allocm@plt
GAS LISTING /tmp/cc5ujtPP.s 			page 10


 369      E7800000 
 370              	.LVL25:
  19:src/syscall_cpp.cpp **** 
 371              		.loc 2 19 1
 372 01ac 83308100 		ld	ra,8(sp)
 373              		.cfi_restore 1
 374 01b0 03340100 		ld	s0,0(sp)
 375              		.cfi_restore 8
 376              		.cfi_def_cfa 2, 16
 377 01b4 13010101 		addi	sp,sp,16
 378              		.cfi_def_cfa_offset 0
 379 01b8 67800000 		jr	ra
 380              		.cfi_endproc
 381              	.LFE52:
 383              		.align	2
 384              		.globl	_Znam
 386              	_Znam:
 387              	.LFB53:
  21:src/syscall_cpp.cpp ****     return mem_alloc(n);
 388              		.loc 2 21 31 is_stmt 1
 389              		.cfi_startproc
 390              	.LVL26:
 391 01bc 130101FF 		addi	sp,sp,-16
 392              		.cfi_def_cfa_offset 16
 393 01c0 23341100 		sd	ra,8(sp)
 394 01c4 23308100 		sd	s0,0(sp)
 395              		.cfi_offset 1, -8
 396              		.cfi_offset 8, -16
 397 01c8 13040101 		addi	s0,sp,16
 398              		.cfi_def_cfa 8, 0
  22:src/syscall_cpp.cpp **** }
 399              		.loc 2 22 5
  22:src/syscall_cpp.cpp **** }
 400              		.loc 2 22 21 is_stmt 0
 401 01cc 97000000 		call	_Z9mem_allocm@plt
 401      E7800000 
 402              	.LVL27:
  23:src/syscall_cpp.cpp **** 
 403              		.loc 2 23 1
 404 01d4 83308100 		ld	ra,8(sp)
 405              		.cfi_restore 1
 406 01d8 03340100 		ld	s0,0(sp)
 407              		.cfi_restore 8
 408              		.cfi_def_cfa 2, 16
 409 01dc 13010101 		addi	sp,sp,16
 410              		.cfi_def_cfa_offset 0
 411 01e0 67800000 		jr	ra
 412              		.cfi_endproc
 413              	.LFE53:
 415              		.align	2
 416              		.globl	_ZN6ThreadC2EPFvPvES0_
 418              	_ZN6ThreadC2EPFvPvES0_:
 419              	.LFB55:
  27:src/syscall_cpp.cpp ****     myHandle = nullptr;
 420              		.loc 2 27 1 is_stmt 1
 421              		.cfi_startproc
 422              	.LVL28:
GAS LISTING /tmp/cc5ujtPP.s 			page 11


 423 01e4 130101FF 		addi	sp,sp,-16
 424              		.cfi_def_cfa_offset 16
 425 01e8 23341100 		sd	ra,8(sp)
 426 01ec 23308100 		sd	s0,0(sp)
 427              		.cfi_offset 1, -8
 428              		.cfi_offset 8, -16
 429 01f0 13040101 		addi	s0,sp,16
 430              		.cfi_def_cfa 8, 0
 431              	.LBB10:
  27:src/syscall_cpp.cpp ****     myHandle = nullptr;
 432              		.loc 2 27 46 is_stmt 0
 433 01f4 97070000 		lla	a5,_ZTV6Thread+16
 433      93870700 
 434 01fc 2330F500 		sd	a5,0(a0)
  28:src/syscall_cpp.cpp ****     thread_create(&myHandle, body, arg);    //mozda u thread_start
 435              		.loc 2 28 5 is_stmt 1
  28:src/syscall_cpp.cpp ****     thread_create(&myHandle, body, arg);    //mozda u thread_start
 436              		.loc 2 28 14 is_stmt 0
 437 0200 23340500 		sd	zero,8(a0)
  29:src/syscall_cpp.cpp **** };
 438              		.loc 2 29 5 is_stmt 1
  29:src/syscall_cpp.cpp **** };
 439              		.loc 2 29 18 is_stmt 0
 440 0204 13058500 		addi	a0,a0,8
 441              	.LVL29:
 442 0208 97000000 		call	_Z13thread_createPP12kernelThreadPFvPvES2_@plt
 442      E7800000 
 443              	.LVL30:
 444              	.LBE10:
  30:src/syscall_cpp.cpp **** 
 445              		.loc 2 30 1
 446 0210 83308100 		ld	ra,8(sp)
 447              		.cfi_restore 1
 448 0214 03340100 		ld	s0,0(sp)
 449              		.cfi_restore 8
 450              		.cfi_def_cfa 2, 16
 451 0218 13010101 		addi	sp,sp,16
 452              		.cfi_def_cfa_offset 0
 453 021c 67800000 		jr	ra
 454              		.cfi_endproc
 455              	.LFE55:
 457              		.globl	_ZN6ThreadC1EPFvPvES0_
 458              		.set	_ZN6ThreadC1EPFvPvES0_,_ZN6ThreadC2EPFvPvES0_
 459              		.align	2
 460              		.globl	_ZN6Thread8dispatchEv
 462              	_ZN6Thread8dispatchEv:
 463              	.LFB57:
  32:src/syscall_cpp.cpp ****     thread_dispatch();
 464              		.loc 2 32 25 is_stmt 1
 465              		.cfi_startproc
 466 0220 130101FF 		addi	sp,sp,-16
 467              		.cfi_def_cfa_offset 16
 468 0224 23341100 		sd	ra,8(sp)
 469 0228 23308100 		sd	s0,0(sp)
 470              		.cfi_offset 1, -8
 471              		.cfi_offset 8, -16
 472 022c 13040101 		addi	s0,sp,16
GAS LISTING /tmp/cc5ujtPP.s 			page 12


 473              		.cfi_def_cfa 8, 0
  33:src/syscall_cpp.cpp **** };
 474              		.loc 2 33 5
  33:src/syscall_cpp.cpp **** };
 475              		.loc 2 33 20 is_stmt 0
 476 0230 97000000 		call	_Z15thread_dispatchv@plt
 476      E7800000 
 477              	.LVL31:
  34:src/syscall_cpp.cpp **** 
 478              		.loc 2 34 1
 479 0238 83308100 		ld	ra,8(sp)
 480              		.cfi_restore 1
 481 023c 03340100 		ld	s0,0(sp)
 482              		.cfi_restore 8
 483              		.cfi_def_cfa 2, 16
 484 0240 13010101 		addi	sp,sp,16
 485              		.cfi_def_cfa_offset 0
 486 0244 67800000 		jr	ra
 487              		.cfi_endproc
 488              	.LFE57:
 490              		.align	2
 491              		.globl	_ZN6Thread5startEv
 493              	_ZN6Thread5startEv:
 494              	.LFB62:
  41:src/syscall_cpp.cpp ****     thread_start(this->myHandle); //potentially create
 495              		.loc 2 41 21 is_stmt 1
 496              		.cfi_startproc
 497              	.LVL32:
 498 0248 130101FF 		addi	sp,sp,-16
 499              		.cfi_def_cfa_offset 16
 500 024c 23341100 		sd	ra,8(sp)
 501 0250 23308100 		sd	s0,0(sp)
 502              		.cfi_offset 1, -8
 503              		.cfi_offset 8, -16
 504 0254 13040101 		addi	s0,sp,16
 505              		.cfi_def_cfa 8, 0
  42:src/syscall_cpp.cpp ****     return 0;
 506              		.loc 2 42 5
  42:src/syscall_cpp.cpp ****     return 0;
 507              		.loc 2 42 17 is_stmt 0
 508 0258 03358500 		ld	a0,8(a0)
 509              	.LVL33:
 510 025c 97000000 		call	_Z12thread_startP12kernelThread@plt
 510      E7800000 
 511              	.LVL34:
  43:src/syscall_cpp.cpp **** };
 512              		.loc 2 43 5 is_stmt 1
  44:src/syscall_cpp.cpp **** 
 513              		.loc 2 44 1 is_stmt 0
 514 0264 13050000 		li	a0,0
 515 0268 83308100 		ld	ra,8(sp)
 516              		.cfi_restore 1
 517 026c 03340100 		ld	s0,0(sp)
 518              		.cfi_restore 8
 519              		.cfi_def_cfa 2, 16
 520 0270 13010101 		addi	sp,sp,16
 521              		.cfi_def_cfa_offset 0
GAS LISTING /tmp/cc5ujtPP.s 			page 13


 522 0274 67800000 		jr	ra
 523              		.cfi_endproc
 524              	.LFE62:
 526              		.align	2
 527              		.globl	_ZN6ThreadC2Ev
 529              	_ZN6ThreadC2Ev:
 530              	.LFB65:
  52:src/syscall_cpp.cpp ****     myHandle = nullptr;
 531              		.loc 2 52 1 is_stmt 1
 532              		.cfi_startproc
 533              	.LVL35:
 534 0278 130101FF 		addi	sp,sp,-16
 535              		.cfi_def_cfa_offset 16
 536 027c 23341100 		sd	ra,8(sp)
 537 0280 23308100 		sd	s0,0(sp)
 538              		.cfi_offset 1, -8
 539              		.cfi_offset 8, -16
 540 0284 13040101 		addi	s0,sp,16
 541              		.cfi_def_cfa 8, 0
 542              	.LBB11:
  52:src/syscall_cpp.cpp ****     myHandle = nullptr;
 543              		.loc 2 52 16 is_stmt 0
 544 0288 97070000 		lla	a5,_ZTV6Thread+16
 544      93870700 
 545 0290 2330F500 		sd	a5,0(a0)
  53:src/syscall_cpp.cpp ****     thread_create(&myHandle, &functionWrapper, (void *)this);
 546              		.loc 2 53 5 is_stmt 1
  53:src/syscall_cpp.cpp ****     thread_create(&myHandle, &functionWrapper, (void *)this);
 547              		.loc 2 53 14 is_stmt 0
 548 0294 23340500 		sd	zero,8(a0)
  54:src/syscall_cpp.cpp **** };
 549              		.loc 2 54 5 is_stmt 1
  54:src/syscall_cpp.cpp **** };
 550              		.loc 2 54 18 is_stmt 0
 551 0298 13060500 		mv	a2,a0
 552 029c 97050000 		lla	a1,_ZN6Thread15functionWrapperEPv
 552      93850500 
 553 02a4 13058500 		addi	a0,a0,8
 554              	.LVL36:
 555 02a8 97000000 		call	_Z13thread_createPP12kernelThreadPFvPvES2_@plt
 555      E7800000 
 556              	.LVL37:
 557              	.LBE11:
  55:src/syscall_cpp.cpp **** 
 558              		.loc 2 55 1
 559 02b0 83308100 		ld	ra,8(sp)
 560              		.cfi_restore 1
 561 02b4 03340100 		ld	s0,0(sp)
 562              		.cfi_restore 8
 563              		.cfi_def_cfa 2, 16
 564 02b8 13010101 		addi	sp,sp,16
 565              		.cfi_def_cfa_offset 0
 566 02bc 67800000 		jr	ra
 567              		.cfi_endproc
 568              	.LFE65:
 570              		.globl	_ZN6ThreadC1Ev
 571              		.set	_ZN6ThreadC1Ev,_ZN6ThreadC2Ev
GAS LISTING /tmp/cc5ujtPP.s 			page 14


 572              		.align	2
 573              		.globl	_ZN9SemaphoreC2Ej
 575              	_ZN9SemaphoreC2Ej:
 576              	.LFB68:
  57:src/syscall_cpp.cpp ****     this->myHandle = nullptr;
 577              		.loc 2 57 1 is_stmt 1
 578              		.cfi_startproc
 579              	.LVL38:
 580 02c0 130101FF 		addi	sp,sp,-16
 581              		.cfi_def_cfa_offset 16
 582 02c4 23341100 		sd	ra,8(sp)
 583 02c8 23308100 		sd	s0,0(sp)
 584              		.cfi_offset 1, -8
 585              		.cfi_offset 8, -16
 586 02cc 13040101 		addi	s0,sp,16
 587              		.cfi_def_cfa 8, 0
 588              	.LBB12:
  57:src/syscall_cpp.cpp ****     this->myHandle = nullptr;
 589              		.loc 2 57 35 is_stmt 0
 590 02d0 97070000 		lla	a5,_ZTV9Semaphore+16
 590      93870700 
 591 02d8 2330F500 		sd	a5,0(a0)
  58:src/syscall_cpp.cpp ****     sem_open(&myHandle, init);
 592              		.loc 2 58 5 is_stmt 1
  58:src/syscall_cpp.cpp ****     sem_open(&myHandle, init);
 593              		.loc 2 58 20 is_stmt 0
 594 02dc 23340500 		sd	zero,8(a0)
  59:src/syscall_cpp.cpp **** };
 595              		.loc 2 59 5 is_stmt 1
  59:src/syscall_cpp.cpp **** };
 596              		.loc 2 59 13 is_stmt 0
 597 02e0 13058500 		addi	a0,a0,8
 598              	.LVL39:
 599 02e4 97000000 		call	_Z8sem_openPP15kernelSemaphorej@plt
 599      E7800000 
 600              	.LVL40:
 601              	.LBE12:
  60:src/syscall_cpp.cpp **** 
 602              		.loc 2 60 1
 603 02ec 83308100 		ld	ra,8(sp)
 604              		.cfi_restore 1
 605 02f0 03340100 		ld	s0,0(sp)
 606              		.cfi_restore 8
 607              		.cfi_def_cfa 2, 16
 608 02f4 13010101 		addi	sp,sp,16
 609              		.cfi_def_cfa_offset 0
 610 02f8 67800000 		jr	ra
 611              		.cfi_endproc
 612              	.LFE68:
 614              		.globl	_ZN9SemaphoreC1Ej
 615              		.set	_ZN9SemaphoreC1Ej,_ZN9SemaphoreC2Ej
 616              		.align	2
 617              		.globl	_ZN9Semaphore6signalEv
 619              	_ZN9Semaphore6signalEv:
 620              	.LFB74:
  65:src/syscall_cpp.cpp **** 
  66:src/syscall_cpp.cpp **** int Semaphore::signal(){
GAS LISTING /tmp/cc5ujtPP.s 			page 15


 621              		.loc 2 66 24 is_stmt 1
 622              		.cfi_startproc
 623              	.LVL41:
 624 02fc 130101FF 		addi	sp,sp,-16
 625              		.cfi_def_cfa_offset 16
 626 0300 23341100 		sd	ra,8(sp)
 627 0304 23308100 		sd	s0,0(sp)
 628              		.cfi_offset 1, -8
 629              		.cfi_offset 8, -16
 630 0308 13040101 		addi	s0,sp,16
 631              		.cfi_def_cfa 8, 0
  67:src/syscall_cpp.cpp ****     int retVal = sem_signal(this->myHandle);
 632              		.loc 2 67 5
 633              		.loc 2 67 28 is_stmt 0
 634 030c 03358500 		ld	a0,8(a0)
 635              	.LVL42:
 636 0310 97000000 		call	_Z10sem_signalP15kernelSemaphore@plt
 636      E7800000 
 637              	.LVL43:
  68:src/syscall_cpp.cpp ****     return retVal;
 638              		.loc 2 68 5 is_stmt 1
  69:src/syscall_cpp.cpp **** };
 639              		.loc 2 69 1 is_stmt 0
 640 0318 83308100 		ld	ra,8(sp)
 641              		.cfi_restore 1
 642 031c 03340100 		ld	s0,0(sp)
 643              		.cfi_restore 8
 644              		.cfi_def_cfa 2, 16
 645 0320 13010101 		addi	sp,sp,16
 646              		.cfi_def_cfa_offset 0
 647 0324 67800000 		jr	ra
 648              		.cfi_endproc
 649              	.LFE74:
 651              		.align	2
 652              		.globl	_ZN9Semaphore4waitEv
 654              	_ZN9Semaphore4waitEv:
 655              	.LFB75:
  70:src/syscall_cpp.cpp **** 
  71:src/syscall_cpp.cpp **** int Semaphore::wait(){
 656              		.loc 2 71 22 is_stmt 1
 657              		.cfi_startproc
 658              	.LVL44:
 659 0328 130101FF 		addi	sp,sp,-16
 660              		.cfi_def_cfa_offset 16
 661 032c 23341100 		sd	ra,8(sp)
 662 0330 23308100 		sd	s0,0(sp)
 663              		.cfi_offset 1, -8
 664              		.cfi_offset 8, -16
 665 0334 13040101 		addi	s0,sp,16
 666              		.cfi_def_cfa 8, 0
  72:src/syscall_cpp.cpp ****     int retVal = sem_wait(this->myHandle);
 667              		.loc 2 72 5
 668              		.loc 2 72 26 is_stmt 0
 669 0338 03358500 		ld	a0,8(a0)
 670              	.LVL45:
 671 033c 97000000 		call	_Z8sem_waitP15kernelSemaphore@plt
 671      E7800000 
GAS LISTING /tmp/cc5ujtPP.s 			page 16


 672              	.LVL46:
  73:src/syscall_cpp.cpp ****     return retVal;
 673              		.loc 2 73 5 is_stmt 1
  74:src/syscall_cpp.cpp **** };
 674              		.loc 2 74 1 is_stmt 0
 675 0344 83308100 		ld	ra,8(sp)
 676              		.cfi_restore 1
 677 0348 03340100 		ld	s0,0(sp)
 678              		.cfi_restore 8
 679              		.cfi_def_cfa 2, 16
 680 034c 13010101 		addi	sp,sp,16
 681              		.cfi_def_cfa_offset 0
 682 0350 67800000 		jr	ra
 683              		.cfi_endproc
 684              	.LFE75:
 686              		.align	2
 687              		.globl	_ZN9Semaphore7tryWaitEv
 689              	_ZN9Semaphore7tryWaitEv:
 690              	.LFB76:
  75:src/syscall_cpp.cpp **** 
  76:src/syscall_cpp.cpp **** int Semaphore::tryWait(){
 691              		.loc 2 76 25 is_stmt 1
 692              		.cfi_startproc
 693              	.LVL47:
 694 0354 130101FF 		addi	sp,sp,-16
 695              		.cfi_def_cfa_offset 16
 696 0358 23341100 		sd	ra,8(sp)
 697 035c 23308100 		sd	s0,0(sp)
 698              		.cfi_offset 1, -8
 699              		.cfi_offset 8, -16
 700 0360 13040101 		addi	s0,sp,16
 701              		.cfi_def_cfa 8, 0
  77:src/syscall_cpp.cpp ****     int retVal = sem_trywait(this->myHandle);
 702              		.loc 2 77 5
 703              		.loc 2 77 29 is_stmt 0
 704 0364 03358500 		ld	a0,8(a0)
 705              	.LVL48:
 706 0368 97000000 		call	_Z11sem_trywaitP15kernelSemaphore@plt
 706      E7800000 
 707              	.LVL49:
  78:src/syscall_cpp.cpp ****     return retVal;
 708              		.loc 2 78 5 is_stmt 1
  79:src/syscall_cpp.cpp **** };
 709              		.loc 2 79 1 is_stmt 0
 710 0370 83308100 		ld	ra,8(sp)
 711              		.cfi_restore 1
 712 0374 03340100 		ld	s0,0(sp)
 713              		.cfi_restore 8
 714              		.cfi_def_cfa 2, 16
 715 0378 13010101 		addi	sp,sp,16
 716              		.cfi_def_cfa_offset 0
 717 037c 67800000 		jr	ra
 718              		.cfi_endproc
 719              	.LFE76:
 721              		.align	2
 722              		.globl	_ZN7Console4getcEv
 724              	_ZN7Console4getcEv:
GAS LISTING /tmp/cc5ujtPP.s 			page 17


 725              	.LFB77:
  80:src/syscall_cpp.cpp **** 
  81:src/syscall_cpp.cpp **** char Console::getc() {
 726              		.loc 2 81 22 is_stmt 1
 727              		.cfi_startproc
 728 0380 130101FF 		addi	sp,sp,-16
 729              		.cfi_def_cfa_offset 16
 730 0384 23341100 		sd	ra,8(sp)
 731 0388 23308100 		sd	s0,0(sp)
 732              		.cfi_offset 1, -8
 733              		.cfi_offset 8, -16
 734 038c 13040101 		addi	s0,sp,16
 735              		.cfi_def_cfa 8, 0
  82:src/syscall_cpp.cpp ****     return ::getc();
 736              		.loc 2 82 5
 737              		.loc 2 82 18 is_stmt 0
 738 0390 97000000 		call	_Z4getcv@plt
 738      E7800000 
 739              	.LVL50:
  83:src/syscall_cpp.cpp **** };
 740              		.loc 2 83 1
 741 0398 83308100 		ld	ra,8(sp)
 742              		.cfi_restore 1
 743 039c 03340100 		ld	s0,0(sp)
 744              		.cfi_restore 8
 745              		.cfi_def_cfa 2, 16
 746 03a0 13010101 		addi	sp,sp,16
 747              		.cfi_def_cfa_offset 0
 748 03a4 67800000 		jr	ra
 749              		.cfi_endproc
 750              	.LFE77:
 752              		.align	2
 753              		.globl	_ZN7Console4putcEc
 755              	_ZN7Console4putcEc:
 756              	.LFB78:
  84:src/syscall_cpp.cpp **** 
  85:src/syscall_cpp.cpp **** void Console::putc(char c) {
 757              		.loc 2 85 28 is_stmt 1
 758              		.cfi_startproc
 759              	.LVL51:
 760 03a8 130101FF 		addi	sp,sp,-16
 761              		.cfi_def_cfa_offset 16
 762 03ac 23341100 		sd	ra,8(sp)
 763 03b0 23308100 		sd	s0,0(sp)
 764              		.cfi_offset 1, -8
 765              		.cfi_offset 8, -16
 766 03b4 13040101 		addi	s0,sp,16
 767              		.cfi_def_cfa 8, 0
  86:src/syscall_cpp.cpp ****     ::putc(c);
 768              		.loc 2 86 5
 769              		.loc 2 86 11 is_stmt 0
 770 03b8 97000000 		call	_Z4putcc@plt
 770      E7800000 
 771              	.LVL52:
  87:src/syscall_cpp.cpp **** };...
 772              		.loc 2 87 1
 773 03c0 83308100 		ld	ra,8(sp)
GAS LISTING /tmp/cc5ujtPP.s 			page 18


 774              		.cfi_restore 1
 775 03c4 03340100 		ld	s0,0(sp)
 776              		.cfi_restore 8
 777              		.cfi_def_cfa 2, 16
 778 03c8 13010101 		addi	sp,sp,16
 779              		.cfi_def_cfa_offset 0
 780 03cc 67800000 		jr	ra
 781              		.cfi_endproc
 782              	.LFE78:
 784              		.weak	_ZTV6Thread
 785              		.section	.data.rel.ro.local._ZTV6Thread,"awG",@progbits,_ZTV6Thread,comdat
 786              		.align	3
 789              	_ZTV6Thread:
 790 0000 00000000 		.dword	0
 790      00000000 
 791 0008 00000000 		.dword	0
 791      00000000 
 792 0010 00000000 		.dword	_ZN6ThreadD1Ev
 792      00000000 
 793 0018 00000000 		.dword	_ZN6ThreadD0Ev
 793      00000000 
 794 0020 00000000 		.dword	_ZN6Thread3runEv
 794      00000000 
 795              		.weak	_ZTV9Semaphore
 796              		.section	.data.rel.ro.local._ZTV9Semaphore,"awG",@progbits,_ZTV9Semaphore,comdat
 797              		.align	3
 800              	_ZTV9Semaphore:
 801 0000 00000000 		.dword	0
 801      00000000 
 802 0008 00000000 		.dword	0
 802      00000000 
 803 0010 00000000 		.dword	_ZN9SemaphoreD1Ev
 803      00000000 
 804 0018 00000000 		.dword	_ZN9SemaphoreD0Ev
 804      00000000 
 805              		.text
 806              	.Letext0:
 807              		.file 4 "src/../h/../lib/hw.h"
 808              		.file 5 "src/../h/../h/list.hpp"
 809              		.file 6 "src/../h/../h/kernelSemaphore.hpp"
 810              		.file 7 "src/../h/syscall_c.hpp"
 4279              		.align	3
 4282              	DW.ref.__gxx_personality_v0:
 4283 0000 00000000 		.dword	__gxx_personality_v0
 4283      00000000 
 4284              		.ident	"GCC: (Ubuntu 9.4.0-1ubuntu1~20.04) 9.4.0"
 4285              		.section	.note.GNU-stack,"",@progbits
GAS LISTING /tmp/cc5ujtPP.s 			page 19

